
Sprint1.elf:     file format elf32-avr

Sections:
Idx Name          Size      VMA       LMA       File off  Algn
  0 .text         00001ef0  00000000  00000000  00000094  2**1
                  CONTENTS, ALLOC, LOAD, READONLY, CODE
  1 .data         00000094  00800060  00001ef0  00001f84  2**0
                  CONTENTS, ALLOC, LOAD, DATA
  2 .bss          00000651  008000f4  008000f4  00002018  2**0
                  ALLOC
  3 .comment      00000030  00000000  00000000  00002018  2**0
                  CONTENTS, READONLY
  4 .note.gnu.avr.deviceinfo 0000003c  00000000  00000000  00002048  2**2
                  CONTENTS, READONLY
  5 .debug_aranges 000003a8  00000000  00000000  00002084  2**0
                  CONTENTS, READONLY, DEBUGGING
  6 .debug_info   0000277f  00000000  00000000  0000242c  2**0
                  CONTENTS, READONLY, DEBUGGING
  7 .debug_abbrev 00000d96  00000000  00000000  00004bab  2**0
                  CONTENTS, READONLY, DEBUGGING
  8 .debug_line   00002907  00000000  00000000  00005941  2**0
                  CONTENTS, READONLY, DEBUGGING
  9 .debug_frame  00000c7c  00000000  00000000  00008248  2**2
                  CONTENTS, READONLY, DEBUGGING
 10 .debug_str    0000134f  00000000  00000000  00008ec4  2**0
                  CONTENTS, READONLY, DEBUGGING
 11 .debug_loc    000019be  00000000  00000000  0000a213  2**0
                  CONTENTS, READONLY, DEBUGGING
 12 .debug_ranges 00000318  00000000  00000000  0000bbd1  2**0
                  CONTENTS, READONLY, DEBUGGING

Disassembly of section .text:

00000000 <__vectors>:
       0:	0c 94 2a 00 	jmp	0x54	; 0x54 <__ctors_end>
       4:	0c 94 47 00 	jmp	0x8e	; 0x8e <__bad_interrupt>
       8:	0c 94 47 00 	jmp	0x8e	; 0x8e <__bad_interrupt>
       c:	0c 94 47 00 	jmp	0x8e	; 0x8e <__bad_interrupt>
      10:	0c 94 47 00 	jmp	0x8e	; 0x8e <__bad_interrupt>
      14:	0c 94 47 00 	jmp	0x8e	; 0x8e <__bad_interrupt>
      18:	0c 94 47 00 	jmp	0x8e	; 0x8e <__bad_interrupt>
      1c:	0c 94 d7 07 	jmp	0xfae	; 0xfae <__vector_7>
      20:	0c 94 47 00 	jmp	0x8e	; 0x8e <__bad_interrupt>
      24:	0c 94 47 00 	jmp	0x8e	; 0x8e <__bad_interrupt>
      28:	0c 94 47 00 	jmp	0x8e	; 0x8e <__bad_interrupt>
      2c:	0c 94 47 00 	jmp	0x8e	; 0x8e <__bad_interrupt>
      30:	0c 94 47 00 	jmp	0x8e	; 0x8e <__bad_interrupt>
      34:	0c 94 47 00 	jmp	0x8e	; 0x8e <__bad_interrupt>
      38:	0c 94 47 00 	jmp	0x8e	; 0x8e <__bad_interrupt>
      3c:	0c 94 47 00 	jmp	0x8e	; 0x8e <__bad_interrupt>
      40:	0c 94 47 00 	jmp	0x8e	; 0x8e <__bad_interrupt>
      44:	0c 94 47 00 	jmp	0x8e	; 0x8e <__bad_interrupt>
      48:	0c 94 47 00 	jmp	0x8e	; 0x8e <__bad_interrupt>
      4c:	0c 94 47 00 	jmp	0x8e	; 0x8e <__bad_interrupt>
      50:	0c 94 47 00 	jmp	0x8e	; 0x8e <__bad_interrupt>

00000054 <__ctors_end>:
      54:	11 24       	eor	r1, r1
      56:	1f be       	out	0x3f, r1	; 63
      58:	cf e5       	ldi	r28, 0x5F	; 95
      5a:	d8 e0       	ldi	r29, 0x08	; 8
      5c:	de bf       	out	0x3e, r29	; 62
      5e:	cd bf       	out	0x3d, r28	; 61

00000060 <__do_copy_data>:
      60:	10 e0       	ldi	r17, 0x00	; 0
      62:	a0 e6       	ldi	r26, 0x60	; 96
      64:	b0 e0       	ldi	r27, 0x00	; 0
      66:	e0 ef       	ldi	r30, 0xF0	; 240
      68:	fe e1       	ldi	r31, 0x1E	; 30
      6a:	02 c0       	rjmp	.+4      	; 0x70 <__do_copy_data+0x10>
      6c:	05 90       	lpm	r0, Z+
      6e:	0d 92       	st	X+, r0
      70:	a4 3f       	cpi	r26, 0xF4	; 244
      72:	b1 07       	cpc	r27, r17
      74:	d9 f7       	brne	.-10     	; 0x6c <__do_copy_data+0xc>

00000076 <__do_clear_bss>:
      76:	27 e0       	ldi	r18, 0x07	; 7
      78:	a4 ef       	ldi	r26, 0xF4	; 244
      7a:	b0 e0       	ldi	r27, 0x00	; 0
      7c:	01 c0       	rjmp	.+2      	; 0x80 <.do_clear_bss_start>

0000007e <.do_clear_bss_loop>:
      7e:	1d 92       	st	X+, r1

00000080 <.do_clear_bss_start>:
      80:	a5 34       	cpi	r26, 0x45	; 69
      82:	b2 07       	cpc	r27, r18
      84:	e1 f7       	brne	.-8      	; 0x7e <.do_clear_bss_loop>
      86:	0e 94 cf 00 	call	0x19e	; 0x19e <main>
      8a:	0c 94 76 0f 	jmp	0x1eec	; 0x1eec <_exit>

0000008e <__bad_interrupt>:
      8e:	0c 94 00 00 	jmp	0	; 0x0 <__vectors>

00000092 <Init_Task>:
 * Description: This Task is used to Init the System
 * @param port : input parameter to the Task
 * Return : void
 */
void Init_Task(void* pvParameters)
{
      92:	cf 93       	push	r28
      94:	df 93       	push	r29
      96:	00 d0       	rcall	.+0      	; 0x98 <Init_Task+0x6>
      98:	cd b7       	in	r28, 0x3d	; 61
      9a:	de b7       	in	r29, 0x3e	; 62
      9c:	9a 83       	std	Y+2, r25	; 0x02
      9e:	89 83       	std	Y+1, r24	; 0x01
	while(TRUE)
	{
		Led_Init(LED0);
      a0:	80 e1       	ldi	r24, 0x10	; 16
      a2:	0e 94 9b 02 	call	0x536	; 0x536 <Led_Init>
		Led_Init(LED1);
      a6:	80 e2       	ldi	r24, 0x20	; 32
      a8:	0e 94 9b 02 	call	0x536	; 0x536 <Led_Init>
		Led_Init(LED2);
      ac:	80 e4       	ldi	r24, 0x40	; 64
      ae:	0e 94 9b 02 	call	0x536	; 0x536 <Led_Init>
		LCD_Init();
      b2:	0e 94 af 01 	call	0x35e	; 0x35e <LCD_Init>
		vTaskSuspend(Init_Task_Handle);
      b6:	80 91 f4 00 	lds	r24, 0x00F4	; 0x8000f4 <__data_end>
      ba:	90 91 f5 00 	lds	r25, 0x00F5	; 0x8000f5 <__data_end+0x1>
      be:	0e 94 c4 09 	call	0x1388	; 0x1388 <vTaskSuspend>
	}
      c2:	ee cf       	rjmp	.-36     	; 0xa0 <Init_Task+0xe>

000000c4 <Lcd_Task>:
 * Description: This Task is used to Display String on the LCD
 * @param port : input parameter to the Task
 * Return : void
 */
void Lcd_Task(void* pvParameters)
{	
      c4:	cf 93       	push	r28
      c6:	df 93       	push	r29
      c8:	cd b7       	in	r28, 0x3d	; 61
      ca:	de b7       	in	r29, 0x3e	; 62
      cc:	c7 56       	subi	r28, 0x67	; 103
      ce:	d1 09       	sbc	r29, r1
      d0:	0f b6       	in	r0, 0x3f	; 63
      d2:	f8 94       	cli
      d4:	de bf       	out	0x3e, r29	; 62
      d6:	0f be       	out	0x3f, r0	; 63
      d8:	cd bf       	out	0x3d, r28	; 61
      da:	9e 01       	movw	r18, r28
      dc:	2a 59       	subi	r18, 0x9A	; 154
      de:	3f 4f       	sbci	r19, 0xFF	; 255
      e0:	f9 01       	movw	r30, r18
      e2:	91 83       	std	Z+1, r25	; 0x01
      e4:	80 83       	st	Z, r24
	uint8 RandomStringindex = FALSE;
      e6:	19 82       	std	Y+1, r1	; 0x01
	char arrRandomStrings[MAX_RandomStringindex_VALUE][MAX_RandomStringindex_VALUE] = {
      e8:	84 e6       	ldi	r24, 0x64	; 100
      ea:	e0 e6       	ldi	r30, 0x60	; 96
      ec:	f0 e0       	ldi	r31, 0x00	; 0
      ee:	de 01       	movw	r26, r28
      f0:	12 96       	adiw	r26, 0x02	; 2
      f2:	01 90       	ld	r0, Z+
      f4:	0d 92       	st	X+, r0
      f6:	8a 95       	dec	r24
      f8:	e1 f7       	brne	.-8      	; 0xf2 <Lcd_Task+0x2e>
		"Mostafa",
		"Mohamed",
	};
	while(TRUE)
	{
		LCD_GotoRowColumn(FIRST_ROW,FIRST_COLUMN);
      fa:	60 e0       	ldi	r22, 0x00	; 0
      fc:	80 e0       	ldi	r24, 0x00	; 0
      fe:	0e 94 84 02 	call	0x508	; 0x508 <LCD_GotoRowColumn>
		LCD_DisplayString(arrRandomStrings[RandomStringindex]);
     102:	89 81       	ldd	r24, Y+1	; 0x01
     104:	88 2f       	mov	r24, r24
     106:	90 e0       	ldi	r25, 0x00	; 0
     108:	9e 01       	movw	r18, r28
     10a:	2e 5f       	subi	r18, 0xFE	; 254
     10c:	3f 4f       	sbci	r19, 0xFF	; 255
     10e:	88 0f       	add	r24, r24
     110:	99 1f       	adc	r25, r25
     112:	ac 01       	movw	r20, r24
     114:	44 0f       	add	r20, r20
     116:	55 1f       	adc	r21, r21
     118:	44 0f       	add	r20, r20
     11a:	55 1f       	adc	r21, r21
     11c:	84 0f       	add	r24, r20
     11e:	95 1f       	adc	r25, r21
     120:	82 0f       	add	r24, r18
     122:	93 1f       	adc	r25, r19
     124:	0e 94 4b 02 	call	0x496	; 0x496 <LCD_DisplayString>
		RandomStringindex++;
     128:	89 81       	ldd	r24, Y+1	; 0x01
     12a:	8f 5f       	subi	r24, 0xFF	; 255
     12c:	89 83       	std	Y+1, r24	; 0x01
		if (RandomStringindex > MAX_RandomStringindex_VALUE)
     12e:	89 81       	ldd	r24, Y+1	; 0x01
     130:	8b 30       	cpi	r24, 0x0B	; 11
     132:	18 f0       	brcs	.+6      	; 0x13a <Lcd_Task+0x76>
		{
			RandomStringindex = FALSE;
     134:	19 82       	std	Y+1, r1	; 0x01
			LCD_Clear();
     136:	0e 94 79 02 	call	0x4f2	; 0x4f2 <LCD_Clear>
		}
		vTaskDelay(TASK_DELAY_LCD_VALUE);
     13a:	8c ed       	ldi	r24, 0xDC	; 220
     13c:	95 e0       	ldi	r25, 0x05	; 5
     13e:	0e 94 a1 09 	call	0x1342	; 0x1342 <vTaskDelay>
	}
     142:	db cf       	rjmp	.-74     	; 0xfa <Lcd_Task+0x36>

00000144 <Led1_Task>:
 * Description: This Task is used to Toggle the the Leds
 * @param port : input parameter to the Task
 * Return : void
 */
void Led1_Task(void* pvParameters)
{
     144:	cf 93       	push	r28
     146:	df 93       	push	r29
     148:	00 d0       	rcall	.+0      	; 0x14a <Led1_Task+0x6>
     14a:	cd b7       	in	r28, 0x3d	; 61
     14c:	de b7       	in	r29, 0x3e	; 62
     14e:	9a 83       	std	Y+2, r25	; 0x02
     150:	89 83       	std	Y+1, r24	; 0x01
	while(TRUE)
	{
		Led_Tog(LED0);
     152:	80 e1       	ldi	r24, 0x10	; 16
     154:	0e 94 e5 02 	call	0x5ca	; 0x5ca <Led_Tog>
		vTaskDelay(TASK_DELAY_LED1_VALUE);
     158:	84 e6       	ldi	r24, 0x64	; 100
     15a:	90 e0       	ldi	r25, 0x00	; 0
     15c:	0e 94 a1 09 	call	0x1342	; 0x1342 <vTaskDelay>
	}
     160:	f8 cf       	rjmp	.-16     	; 0x152 <Led1_Task+0xe>

00000162 <Led2_Task>:
 * Description: This Task is used to Toggle the the Leds
 * @param port : input parameter to the Task
 * Return : void
 */
void Led2_Task(void* pvParameters)
{
     162:	cf 93       	push	r28
     164:	df 93       	push	r29
     166:	00 d0       	rcall	.+0      	; 0x168 <Led2_Task+0x6>
     168:	cd b7       	in	r28, 0x3d	; 61
     16a:	de b7       	in	r29, 0x3e	; 62
     16c:	9a 83       	std	Y+2, r25	; 0x02
     16e:	89 83       	std	Y+1, r24	; 0x01
	while(TRUE)
	{
		Led_Tog(LED1);
     170:	80 e2       	ldi	r24, 0x20	; 32
     172:	0e 94 e5 02 	call	0x5ca	; 0x5ca <Led_Tog>
		vTaskDelay(TASK_DELAY_LED2_VALUE);
     176:	84 ef       	ldi	r24, 0xF4	; 244
     178:	91 e0       	ldi	r25, 0x01	; 1
     17a:	0e 94 a1 09 	call	0x1342	; 0x1342 <vTaskDelay>
	}
     17e:	f8 cf       	rjmp	.-16     	; 0x170 <Led2_Task+0xe>

00000180 <Led3_Task>:
 * Description: This Task is used to Toggle the the Leds
 * @param port : input parameter to the Task
 * Return : void
 */
void Led3_Task(void* pvParameters)
{
     180:	cf 93       	push	r28
     182:	df 93       	push	r29
     184:	00 d0       	rcall	.+0      	; 0x186 <Led3_Task+0x6>
     186:	cd b7       	in	r28, 0x3d	; 61
     188:	de b7       	in	r29, 0x3e	; 62
     18a:	9a 83       	std	Y+2, r25	; 0x02
     18c:	89 83       	std	Y+1, r24	; 0x01
	while(TRUE)
	{
		Led_Tog(LED2);
     18e:	80 e4       	ldi	r24, 0x40	; 64
     190:	0e 94 e5 02 	call	0x5ca	; 0x5ca <Led_Tog>
		vTaskDelay(TASK_DELAY_LED3_VALUE);
     194:	88 ee       	ldi	r24, 0xE8	; 232
     196:	93 e0       	ldi	r25, 0x03	; 3
     198:	0e 94 a1 09 	call	0x1342	; 0x1342 <vTaskDelay>
	}
     19c:	f8 cf       	rjmp	.-16     	; 0x18e <Led3_Task+0xe>

0000019e <main>:
     19e:	ef 92       	push	r14
     1a0:	ff 92       	push	r15
     1a2:	0f 93       	push	r16
     1a4:	cf 93       	push	r28
     1a6:	df 93       	push	r29
     1a8:	1f 92       	push	r1
     1aa:	cd b7       	in	r28, 0x3d	; 61
     1ac:	de b7       	in	r29, 0x3e	; 62
     1ae:	19 82       	std	Y+1, r1	; 0x01
     1b0:	0f 2e       	mov	r0, r31
     1b2:	f4 ef       	ldi	r31, 0xF4	; 244
     1b4:	ef 2e       	mov	r14, r31
     1b6:	f0 e0       	ldi	r31, 0x00	; 0
     1b8:	ff 2e       	mov	r15, r31
     1ba:	f0 2d       	mov	r31, r0
     1bc:	04 e0       	ldi	r16, 0x04	; 4
     1be:	20 e0       	ldi	r18, 0x00	; 0
     1c0:	30 e0       	ldi	r19, 0x00	; 0
     1c2:	4c e2       	ldi	r20, 0x2C	; 44
     1c4:	51 e0       	ldi	r21, 0x01	; 1
     1c6:	64 ec       	ldi	r22, 0xC4	; 196
     1c8:	70 e0       	ldi	r23, 0x00	; 0
     1ca:	89 e4       	ldi	r24, 0x49	; 73
     1cc:	90 e0       	ldi	r25, 0x00	; 0
     1ce:	0e 94 db 07 	call	0xfb6	; 0xfb6 <xTaskCreate>
     1d2:	89 83       	std	Y+1, r24	; 0x01
     1d4:	0f 2e       	mov	r0, r31
     1d6:	f6 ef       	ldi	r31, 0xF6	; 246
     1d8:	ef 2e       	mov	r14, r31
     1da:	f0 e0       	ldi	r31, 0x00	; 0
     1dc:	ff 2e       	mov	r15, r31
     1de:	f0 2d       	mov	r31, r0
     1e0:	03 e0       	ldi	r16, 0x03	; 3
     1e2:	20 e0       	ldi	r18, 0x00	; 0
     1e4:	30 e0       	ldi	r19, 0x00	; 0
     1e6:	4c e2       	ldi	r20, 0x2C	; 44
     1e8:	51 e0       	ldi	r21, 0x01	; 1
     1ea:	68 ed       	ldi	r22, 0xD8	; 216
     1ec:	70 e0       	ldi	r23, 0x00	; 0
     1ee:	82 e6       	ldi	r24, 0x62	; 98
     1f0:	90 e0       	ldi	r25, 0x00	; 0
     1f2:	0e 94 db 07 	call	0xfb6	; 0xfb6 <xTaskCreate>
     1f6:	89 83       	std	Y+1, r24	; 0x01
     1f8:	0f 2e       	mov	r0, r31
     1fa:	f8 ef       	ldi	r31, 0xF8	; 248
     1fc:	ef 2e       	mov	r14, r31
     1fe:	f0 e0       	ldi	r31, 0x00	; 0
     200:	ff 2e       	mov	r15, r31
     202:	f0 2d       	mov	r31, r0
     204:	02 e0       	ldi	r16, 0x02	; 2
     206:	20 e0       	ldi	r18, 0x00	; 0
     208:	30 e0       	ldi	r19, 0x00	; 0
     20a:	42 e3       	ldi	r20, 0x32	; 50
     20c:	50 e0       	ldi	r21, 0x00	; 0
     20e:	6c ed       	ldi	r22, 0xDC	; 220
     210:	70 e0       	ldi	r23, 0x00	; 0
     212:	82 ea       	ldi	r24, 0xA2	; 162
     214:	90 e0       	ldi	r25, 0x00	; 0
     216:	0e 94 db 07 	call	0xfb6	; 0xfb6 <xTaskCreate>
     21a:	89 83       	std	Y+1, r24	; 0x01
     21c:	0f 2e       	mov	r0, r31
     21e:	fa ef       	ldi	r31, 0xFA	; 250
     220:	ef 2e       	mov	r14, r31
     222:	f0 e0       	ldi	r31, 0x00	; 0
     224:	ff 2e       	mov	r15, r31
     226:	f0 2d       	mov	r31, r0
     228:	02 e0       	ldi	r16, 0x02	; 2
     22a:	20 e0       	ldi	r18, 0x00	; 0
     22c:	30 e0       	ldi	r19, 0x00	; 0
     22e:	42 e3       	ldi	r20, 0x32	; 50
     230:	50 e0       	ldi	r21, 0x00	; 0
     232:	6c ed       	ldi	r22, 0xDC	; 220
     234:	70 e0       	ldi	r23, 0x00	; 0
     236:	81 eb       	ldi	r24, 0xB1	; 177
     238:	90 e0       	ldi	r25, 0x00	; 0
     23a:	0e 94 db 07 	call	0xfb6	; 0xfb6 <xTaskCreate>
     23e:	89 83       	std	Y+1, r24	; 0x01
     240:	0f 2e       	mov	r0, r31
     242:	fc ef       	ldi	r31, 0xFC	; 252
     244:	ef 2e       	mov	r14, r31
     246:	f0 e0       	ldi	r31, 0x00	; 0
     248:	ff 2e       	mov	r15, r31
     24a:	f0 2d       	mov	r31, r0
     24c:	02 e0       	ldi	r16, 0x02	; 2
     24e:	20 e0       	ldi	r18, 0x00	; 0
     250:	30 e0       	ldi	r19, 0x00	; 0
     252:	42 e3       	ldi	r20, 0x32	; 50
     254:	50 e0       	ldi	r21, 0x00	; 0
     256:	6c ed       	ldi	r22, 0xDC	; 220
     258:	70 e0       	ldi	r23, 0x00	; 0
     25a:	80 ec       	ldi	r24, 0xC0	; 192
     25c:	90 e0       	ldi	r25, 0x00	; 0
     25e:	0e 94 db 07 	call	0xfb6	; 0xfb6 <xTaskCreate>
     262:	89 83       	std	Y+1, r24	; 0x01
     264:	0e 94 31 0a 	call	0x1462	; 0x1462 <vTaskStartScheduler>
     268:	80 e0       	ldi	r24, 0x00	; 0
     26a:	90 e0       	ldi	r25, 0x00	; 0
     26c:	0f 90       	pop	r0
     26e:	df 91       	pop	r29
     270:	cf 91       	pop	r28
     272:	0f 91       	pop	r16
     274:	ff 90       	pop	r15
     276:	ef 90       	pop	r14
     278:	08 95       	ret

0000027a <LCD_SendCommand>:
		}
		else
		{
			LCD_DisplayChar(Number+NUMBER_TO_CHAR_FACTOR);
		}
}
     27a:	cf 93       	push	r28
     27c:	df 93       	push	r29
     27e:	1f 92       	push	r1
     280:	cd b7       	in	r28, 0x3d	; 61
     282:	de b7       	in	r29, 0x3e	; 62
     284:	89 83       	std	Y+1, r24	; 0x01
     286:	40 e0       	ldi	r20, 0x00	; 0
     288:	62 e0       	ldi	r22, 0x02	; 2
     28a:	80 e0       	ldi	r24, 0x00	; 0
     28c:	0e 94 8c 0e 	call	0x1d18	; 0x1d18 <Gpio_PinWrite>
     290:	40 e0       	ldi	r20, 0x00	; 0
     292:	64 e0       	ldi	r22, 0x04	; 4
     294:	80 e0       	ldi	r24, 0x00	; 0
     296:	0e 94 8c 0e 	call	0x1d18	; 0x1d18 <Gpio_PinWrite>
     29a:	89 81       	ldd	r24, Y+1	; 0x01
     29c:	88 1f       	adc	r24, r24
     29e:	88 27       	eor	r24, r24
     2a0:	88 1f       	adc	r24, r24
     2a2:	48 2f       	mov	r20, r24
     2a4:	60 e8       	ldi	r22, 0x80	; 128
     2a6:	80 e0       	ldi	r24, 0x00	; 0
     2a8:	0e 94 8c 0e 	call	0x1d18	; 0x1d18 <Gpio_PinWrite>
     2ac:	89 81       	ldd	r24, Y+1	; 0x01
     2ae:	82 95       	swap	r24
     2b0:	86 95       	lsr	r24
     2b2:	86 95       	lsr	r24
     2b4:	83 70       	andi	r24, 0x03	; 3
     2b6:	81 70       	andi	r24, 0x01	; 1
     2b8:	48 2f       	mov	r20, r24
     2ba:	60 e4       	ldi	r22, 0x40	; 64
     2bc:	80 e0       	ldi	r24, 0x00	; 0
     2be:	0e 94 8c 0e 	call	0x1d18	; 0x1d18 <Gpio_PinWrite>
     2c2:	89 81       	ldd	r24, Y+1	; 0x01
     2c4:	82 95       	swap	r24
     2c6:	86 95       	lsr	r24
     2c8:	87 70       	andi	r24, 0x07	; 7
     2ca:	81 70       	andi	r24, 0x01	; 1
     2cc:	48 2f       	mov	r20, r24
     2ce:	60 e2       	ldi	r22, 0x20	; 32
     2d0:	80 e0       	ldi	r24, 0x00	; 0
     2d2:	0e 94 8c 0e 	call	0x1d18	; 0x1d18 <Gpio_PinWrite>
     2d6:	89 81       	ldd	r24, Y+1	; 0x01
     2d8:	82 95       	swap	r24
     2da:	8f 70       	andi	r24, 0x0F	; 15
     2dc:	81 70       	andi	r24, 0x01	; 1
     2de:	48 2f       	mov	r20, r24
     2e0:	60 e1       	ldi	r22, 0x10	; 16
     2e2:	80 e0       	ldi	r24, 0x00	; 0
     2e4:	0e 94 8c 0e 	call	0x1d18	; 0x1d18 <Gpio_PinWrite>
     2e8:	41 e0       	ldi	r20, 0x01	; 1
     2ea:	68 e0       	ldi	r22, 0x08	; 8
     2ec:	80 e0       	ldi	r24, 0x00	; 0
     2ee:	0e 94 8c 0e 	call	0x1d18	; 0x1d18 <Gpio_PinWrite>
     2f2:	40 e0       	ldi	r20, 0x00	; 0
     2f4:	68 e0       	ldi	r22, 0x08	; 8
     2f6:	80 e0       	ldi	r24, 0x00	; 0
     2f8:	0e 94 8c 0e 	call	0x1d18	; 0x1d18 <Gpio_PinWrite>
     2fc:	89 81       	ldd	r24, Y+1	; 0x01
     2fe:	86 95       	lsr	r24
     300:	86 95       	lsr	r24
     302:	86 95       	lsr	r24
     304:	81 70       	andi	r24, 0x01	; 1
     306:	48 2f       	mov	r20, r24
     308:	60 e8       	ldi	r22, 0x80	; 128
     30a:	80 e0       	ldi	r24, 0x00	; 0
     30c:	0e 94 8c 0e 	call	0x1d18	; 0x1d18 <Gpio_PinWrite>
     310:	89 81       	ldd	r24, Y+1	; 0x01
     312:	86 95       	lsr	r24
     314:	86 95       	lsr	r24
     316:	81 70       	andi	r24, 0x01	; 1
     318:	48 2f       	mov	r20, r24
     31a:	60 e4       	ldi	r22, 0x40	; 64
     31c:	80 e0       	ldi	r24, 0x00	; 0
     31e:	0e 94 8c 0e 	call	0x1d18	; 0x1d18 <Gpio_PinWrite>
     322:	89 81       	ldd	r24, Y+1	; 0x01
     324:	86 95       	lsr	r24
     326:	81 70       	andi	r24, 0x01	; 1
     328:	48 2f       	mov	r20, r24
     32a:	60 e2       	ldi	r22, 0x20	; 32
     32c:	80 e0       	ldi	r24, 0x00	; 0
     32e:	0e 94 8c 0e 	call	0x1d18	; 0x1d18 <Gpio_PinWrite>
     332:	89 81       	ldd	r24, Y+1	; 0x01
     334:	81 70       	andi	r24, 0x01	; 1
     336:	48 2f       	mov	r20, r24
     338:	60 e1       	ldi	r22, 0x10	; 16
     33a:	80 e0       	ldi	r24, 0x00	; 0
     33c:	0e 94 8c 0e 	call	0x1d18	; 0x1d18 <Gpio_PinWrite>
     340:	41 e0       	ldi	r20, 0x01	; 1
     342:	68 e0       	ldi	r22, 0x08	; 8
     344:	80 e0       	ldi	r24, 0x00	; 0
     346:	0e 94 8c 0e 	call	0x1d18	; 0x1d18 <Gpio_PinWrite>
     34a:	40 e0       	ldi	r20, 0x00	; 0
     34c:	68 e0       	ldi	r22, 0x08	; 8
     34e:	80 e0       	ldi	r24, 0x00	; 0
     350:	0e 94 8c 0e 	call	0x1d18	; 0x1d18 <Gpio_PinWrite>
     354:	00 00       	nop
     356:	0f 90       	pop	r0
     358:	df 91       	pop	r29
     35a:	cf 91       	pop	r28
     35c:	08 95       	ret

0000035e <LCD_Init>:
     35e:	cf 93       	push	r28
     360:	df 93       	push	r29
     362:	1f 92       	push	r1
     364:	cd b7       	in	r28, 0x3d	; 61
     366:	de b7       	in	r29, 0x3e	; 62
     368:	19 82       	std	Y+1, r1	; 0x01
     36a:	80 91 fe 00 	lds	r24, 0x00FE	; 0x8000fe <InitState>
     36e:	88 23       	and	r24, r24
     370:	a1 f4       	brne	.+40     	; 0x39a <LCD_Init+0x3c>
     372:	6f ef       	ldi	r22, 0xFF	; 255
     374:	80 e0       	ldi	r24, 0x00	; 0
     376:	0e 94 a9 0d 	call	0x1b52	; 0x1b52 <Gpio_PortDirection>
     37a:	82 e0       	ldi	r24, 0x02	; 2
     37c:	0e 94 3d 01 	call	0x27a	; 0x27a <LCD_SendCommand>
     380:	88 e2       	ldi	r24, 0x28	; 40
     382:	0e 94 3d 01 	call	0x27a	; 0x27a <LCD_SendCommand>
     386:	8e e0       	ldi	r24, 0x0E	; 14
     388:	0e 94 3d 01 	call	0x27a	; 0x27a <LCD_SendCommand>
     38c:	86 e0       	ldi	r24, 0x06	; 6
     38e:	0e 94 3d 01 	call	0x27a	; 0x27a <LCD_SendCommand>
     392:	81 e0       	ldi	r24, 0x01	; 1
     394:	80 93 fe 00 	sts	0x00FE, r24	; 0x8000fe <InitState>
     398:	02 c0       	rjmp	.+4      	; 0x39e <LCD_Init+0x40>
     39a:	83 e0       	ldi	r24, 0x03	; 3
     39c:	89 83       	std	Y+1, r24	; 0x01
     39e:	89 81       	ldd	r24, Y+1	; 0x01
     3a0:	0f 90       	pop	r0
     3a2:	df 91       	pop	r29
     3a4:	cf 91       	pop	r28
     3a6:	08 95       	ret

000003a8 <LCD_DisplayChar>:
     3a8:	cf 93       	push	r28
     3aa:	df 93       	push	r29
     3ac:	1f 92       	push	r1
     3ae:	cd b7       	in	r28, 0x3d	; 61
     3b0:	de b7       	in	r29, 0x3e	; 62
     3b2:	89 83       	std	Y+1, r24	; 0x01
     3b4:	80 91 fe 00 	lds	r24, 0x00FE	; 0x8000fe <InitState>
     3b8:	81 30       	cpi	r24, 0x01	; 1
     3ba:	09 f0       	breq	.+2      	; 0x3be <LCD_DisplayChar+0x16>
     3bc:	67 c0       	rjmp	.+206    	; 0x48c <__LOCK_REGION_LENGTH__+0x8c>
     3be:	41 e0       	ldi	r20, 0x01	; 1
     3c0:	62 e0       	ldi	r22, 0x02	; 2
     3c2:	80 e0       	ldi	r24, 0x00	; 0
     3c4:	0e 94 8c 0e 	call	0x1d18	; 0x1d18 <Gpio_PinWrite>
     3c8:	40 e0       	ldi	r20, 0x00	; 0
     3ca:	64 e0       	ldi	r22, 0x04	; 4
     3cc:	80 e0       	ldi	r24, 0x00	; 0
     3ce:	0e 94 8c 0e 	call	0x1d18	; 0x1d18 <Gpio_PinWrite>
     3d2:	89 81       	ldd	r24, Y+1	; 0x01
     3d4:	88 1f       	adc	r24, r24
     3d6:	88 27       	eor	r24, r24
     3d8:	88 1f       	adc	r24, r24
     3da:	48 2f       	mov	r20, r24
     3dc:	60 e8       	ldi	r22, 0x80	; 128
     3de:	80 e0       	ldi	r24, 0x00	; 0
     3e0:	0e 94 8c 0e 	call	0x1d18	; 0x1d18 <Gpio_PinWrite>
     3e4:	89 81       	ldd	r24, Y+1	; 0x01
     3e6:	82 95       	swap	r24
     3e8:	86 95       	lsr	r24
     3ea:	86 95       	lsr	r24
     3ec:	83 70       	andi	r24, 0x03	; 3
     3ee:	81 70       	andi	r24, 0x01	; 1
     3f0:	48 2f       	mov	r20, r24
     3f2:	60 e4       	ldi	r22, 0x40	; 64
     3f4:	80 e0       	ldi	r24, 0x00	; 0
     3f6:	0e 94 8c 0e 	call	0x1d18	; 0x1d18 <Gpio_PinWrite>
     3fa:	89 81       	ldd	r24, Y+1	; 0x01
     3fc:	82 95       	swap	r24
     3fe:	86 95       	lsr	r24
     400:	87 70       	andi	r24, 0x07	; 7
     402:	81 70       	andi	r24, 0x01	; 1
     404:	48 2f       	mov	r20, r24
     406:	60 e2       	ldi	r22, 0x20	; 32
     408:	80 e0       	ldi	r24, 0x00	; 0
     40a:	0e 94 8c 0e 	call	0x1d18	; 0x1d18 <Gpio_PinWrite>
     40e:	89 81       	ldd	r24, Y+1	; 0x01
     410:	82 95       	swap	r24
     412:	8f 70       	andi	r24, 0x0F	; 15
     414:	81 70       	andi	r24, 0x01	; 1
     416:	48 2f       	mov	r20, r24
     418:	60 e1       	ldi	r22, 0x10	; 16
     41a:	80 e0       	ldi	r24, 0x00	; 0
     41c:	0e 94 8c 0e 	call	0x1d18	; 0x1d18 <Gpio_PinWrite>
     420:	41 e0       	ldi	r20, 0x01	; 1
     422:	68 e0       	ldi	r22, 0x08	; 8
     424:	80 e0       	ldi	r24, 0x00	; 0
     426:	0e 94 8c 0e 	call	0x1d18	; 0x1d18 <Gpio_PinWrite>
     42a:	40 e0       	ldi	r20, 0x00	; 0
     42c:	68 e0       	ldi	r22, 0x08	; 8
     42e:	80 e0       	ldi	r24, 0x00	; 0
     430:	0e 94 8c 0e 	call	0x1d18	; 0x1d18 <Gpio_PinWrite>
     434:	89 81       	ldd	r24, Y+1	; 0x01
     436:	86 95       	lsr	r24
     438:	86 95       	lsr	r24
     43a:	86 95       	lsr	r24
     43c:	81 70       	andi	r24, 0x01	; 1
     43e:	48 2f       	mov	r20, r24
     440:	60 e8       	ldi	r22, 0x80	; 128
     442:	80 e0       	ldi	r24, 0x00	; 0
     444:	0e 94 8c 0e 	call	0x1d18	; 0x1d18 <Gpio_PinWrite>
     448:	89 81       	ldd	r24, Y+1	; 0x01
     44a:	86 95       	lsr	r24
     44c:	86 95       	lsr	r24
     44e:	81 70       	andi	r24, 0x01	; 1
     450:	48 2f       	mov	r20, r24
     452:	60 e4       	ldi	r22, 0x40	; 64
     454:	80 e0       	ldi	r24, 0x00	; 0
     456:	0e 94 8c 0e 	call	0x1d18	; 0x1d18 <Gpio_PinWrite>
     45a:	89 81       	ldd	r24, Y+1	; 0x01
     45c:	86 95       	lsr	r24
     45e:	81 70       	andi	r24, 0x01	; 1
     460:	48 2f       	mov	r20, r24
     462:	60 e2       	ldi	r22, 0x20	; 32
     464:	80 e0       	ldi	r24, 0x00	; 0
     466:	0e 94 8c 0e 	call	0x1d18	; 0x1d18 <Gpio_PinWrite>
     46a:	89 81       	ldd	r24, Y+1	; 0x01
     46c:	81 70       	andi	r24, 0x01	; 1
     46e:	48 2f       	mov	r20, r24
     470:	60 e1       	ldi	r22, 0x10	; 16
     472:	80 e0       	ldi	r24, 0x00	; 0
     474:	0e 94 8c 0e 	call	0x1d18	; 0x1d18 <Gpio_PinWrite>
     478:	41 e0       	ldi	r20, 0x01	; 1
     47a:	68 e0       	ldi	r22, 0x08	; 8
     47c:	80 e0       	ldi	r24, 0x00	; 0
     47e:	0e 94 8c 0e 	call	0x1d18	; 0x1d18 <Gpio_PinWrite>
     482:	40 e0       	ldi	r20, 0x00	; 0
     484:	68 e0       	ldi	r22, 0x08	; 8
     486:	80 e0       	ldi	r24, 0x00	; 0
     488:	0e 94 8c 0e 	call	0x1d18	; 0x1d18 <Gpio_PinWrite>
     48c:	00 00       	nop
     48e:	0f 90       	pop	r0
     490:	df 91       	pop	r29
     492:	cf 91       	pop	r28
     494:	08 95       	ret

00000496 <LCD_DisplayString>:
     496:	cf 93       	push	r28
     498:	df 93       	push	r29
     49a:	00 d0       	rcall	.+0      	; 0x49c <LCD_DisplayString+0x6>
     49c:	1f 92       	push	r1
     49e:	cd b7       	in	r28, 0x3d	; 61
     4a0:	de b7       	in	r29, 0x3e	; 62
     4a2:	9b 83       	std	Y+3, r25	; 0x03
     4a4:	8a 83       	std	Y+2, r24	; 0x02
     4a6:	19 82       	std	Y+1, r1	; 0x01
     4a8:	80 91 fe 00 	lds	r24, 0x00FE	; 0x8000fe <InitState>
     4ac:	81 30       	cpi	r24, 0x01	; 1
     4ae:	d1 f4       	brne	.+52     	; 0x4e4 <LCD_DisplayString+0x4e>
     4b0:	0e c0       	rjmp	.+28     	; 0x4ce <LCD_DisplayString+0x38>
     4b2:	89 81       	ldd	r24, Y+1	; 0x01
     4b4:	88 2f       	mov	r24, r24
     4b6:	90 e0       	ldi	r25, 0x00	; 0
     4b8:	2a 81       	ldd	r18, Y+2	; 0x02
     4ba:	3b 81       	ldd	r19, Y+3	; 0x03
     4bc:	82 0f       	add	r24, r18
     4be:	93 1f       	adc	r25, r19
     4c0:	fc 01       	movw	r30, r24
     4c2:	80 81       	ld	r24, Z
     4c4:	0e 94 d4 01 	call	0x3a8	; 0x3a8 <LCD_DisplayChar>
     4c8:	89 81       	ldd	r24, Y+1	; 0x01
     4ca:	8f 5f       	subi	r24, 0xFF	; 255
     4cc:	89 83       	std	Y+1, r24	; 0x01
     4ce:	89 81       	ldd	r24, Y+1	; 0x01
     4d0:	88 2f       	mov	r24, r24
     4d2:	90 e0       	ldi	r25, 0x00	; 0
     4d4:	2a 81       	ldd	r18, Y+2	; 0x02
     4d6:	3b 81       	ldd	r19, Y+3	; 0x03
     4d8:	82 0f       	add	r24, r18
     4da:	93 1f       	adc	r25, r19
     4dc:	fc 01       	movw	r30, r24
     4de:	80 81       	ld	r24, Z
     4e0:	88 23       	and	r24, r24
     4e2:	39 f7       	brne	.-50     	; 0x4b2 <LCD_DisplayString+0x1c>
     4e4:	00 00       	nop
     4e6:	0f 90       	pop	r0
     4e8:	0f 90       	pop	r0
     4ea:	0f 90       	pop	r0
     4ec:	df 91       	pop	r29
     4ee:	cf 91       	pop	r28
     4f0:	08 95       	ret

000004f2 <LCD_Clear>:
 * Function : LCD_GotoRowColumn
 * Description: this function is to Clear the LCD
 * @return void                        
 */
void LCD_Clear(void)
{
     4f2:	cf 93       	push	r28
     4f4:	df 93       	push	r29
     4f6:	cd b7       	in	r28, 0x3d	; 61
     4f8:	de b7       	in	r29, 0x3e	; 62
	LCD_SendCommand(LCD_ClearScreen);
     4fa:	81 e0       	ldi	r24, 0x01	; 1
     4fc:	0e 94 3d 01 	call	0x27a	; 0x27a <LCD_SendCommand>
}
     500:	00 00       	nop
     502:	df 91       	pop	r29
     504:	cf 91       	pop	r28
     506:	08 95       	ret

00000508 <LCD_GotoRowColumn>:
 * param row: the row of the cursor should range is [0 to 1]
 * param col: the column of the cursor should range is [0 to 15]
 * @return void                                                          
 */
void LCD_GotoRowColumn(uint8 row , uint8 col)
{
     508:	cf 93       	push	r28
     50a:	df 93       	push	r29
     50c:	00 d0       	rcall	.+0      	; 0x50e <LCD_GotoRowColumn+0x6>
     50e:	cd b7       	in	r28, 0x3d	; 61
     510:	de b7       	in	r29, 0x3e	; 62
     512:	89 83       	std	Y+1, r24	; 0x01
     514:	6a 83       	std	Y+2, r22	; 0x02
	LCD_SendCommand( (GOTO_ROW_COL_MASK1) | ( col + (GOTO_ROW_COL_MASK2 * row ) ) );
     516:	99 81       	ldd	r25, Y+1	; 0x01
     518:	89 2f       	mov	r24, r25
     51a:	88 0f       	add	r24, r24
     51c:	88 0f       	add	r24, r24
     51e:	98 0f       	add	r25, r24
     520:	8a 81       	ldd	r24, Y+2	; 0x02
     522:	89 0f       	add	r24, r25
     524:	80 68       	ori	r24, 0x80	; 128
     526:	0e 94 3d 01 	call	0x27a	; 0x27a <LCD_SendCommand>
     52a:	00 00       	nop
     52c:	0f 90       	pop	r0
     52e:	0f 90       	pop	r0
     530:	df 91       	pop	r29
     532:	cf 91       	pop	r28
     534:	08 95       	ret

00000536 <Led_Init>:
     536:	cf 93       	push	r28
     538:	df 93       	push	r29
     53a:	1f 92       	push	r1
     53c:	cd b7       	in	r28, 0x3d	; 61
     53e:	de b7       	in	r29, 0x3e	; 62
     540:	89 83       	std	Y+1, r24	; 0x01
     542:	89 81       	ldd	r24, Y+1	; 0x01
     544:	88 2f       	mov	r24, r24
     546:	90 e0       	ldi	r25, 0x00	; 0
     548:	80 32       	cpi	r24, 0x20	; 32
     54a:	91 05       	cpc	r25, r1
     54c:	c1 f0       	breq	.+48     	; 0x57e <Led_Init+0x48>
     54e:	81 32       	cpi	r24, 0x21	; 33
     550:	91 05       	cpc	r25, r1
     552:	1c f4       	brge	.+6      	; 0x55a <Led_Init+0x24>
     554:	40 97       	sbiw	r24, 0x10	; 16
     556:	41 f0       	breq	.+16     	; 0x568 <Led_Init+0x32>
     558:	33 c0       	rjmp	.+102    	; 0x5c0 <Led_Init+0x8a>
     55a:	80 34       	cpi	r24, 0x40	; 64
     55c:	91 05       	cpc	r25, r1
     55e:	d1 f0       	breq	.+52     	; 0x594 <Led_Init+0x5e>
     560:	80 38       	cpi	r24, 0x80	; 128
     562:	91 05       	cpc	r25, r1
     564:	11 f1       	breq	.+68     	; 0x5aa <Led_Init+0x74>
     566:	2c c0       	rjmp	.+88     	; 0x5c0 <Led_Init+0x8a>
     568:	4f ef       	ldi	r20, 0xFF	; 255
     56a:	60 e1       	ldi	r22, 0x10	; 16
     56c:	81 e0       	ldi	r24, 0x01	; 1
     56e:	0e 94 e0 0d 	call	0x1bc0	; 0x1bc0 <Gpio_PinDirection>
     572:	40 e0       	ldi	r20, 0x00	; 0
     574:	60 e1       	ldi	r22, 0x10	; 16
     576:	81 e0       	ldi	r24, 0x01	; 1
     578:	0e 94 8c 0e 	call	0x1d18	; 0x1d18 <Gpio_PinWrite>
     57c:	21 c0       	rjmp	.+66     	; 0x5c0 <Led_Init+0x8a>
     57e:	4f ef       	ldi	r20, 0xFF	; 255
     580:	60 e2       	ldi	r22, 0x20	; 32
     582:	81 e0       	ldi	r24, 0x01	; 1
     584:	0e 94 e0 0d 	call	0x1bc0	; 0x1bc0 <Gpio_PinDirection>
     588:	40 e0       	ldi	r20, 0x00	; 0
     58a:	60 e2       	ldi	r22, 0x20	; 32
     58c:	81 e0       	ldi	r24, 0x01	; 1
     58e:	0e 94 8c 0e 	call	0x1d18	; 0x1d18 <Gpio_PinWrite>
     592:	16 c0       	rjmp	.+44     	; 0x5c0 <Led_Init+0x8a>
     594:	4f ef       	ldi	r20, 0xFF	; 255
     596:	60 e4       	ldi	r22, 0x40	; 64
     598:	81 e0       	ldi	r24, 0x01	; 1
     59a:	0e 94 e0 0d 	call	0x1bc0	; 0x1bc0 <Gpio_PinDirection>
     59e:	40 e0       	ldi	r20, 0x00	; 0
     5a0:	60 e4       	ldi	r22, 0x40	; 64
     5a2:	81 e0       	ldi	r24, 0x01	; 1
     5a4:	0e 94 8c 0e 	call	0x1d18	; 0x1d18 <Gpio_PinWrite>
     5a8:	0b c0       	rjmp	.+22     	; 0x5c0 <Led_Init+0x8a>
     5aa:	4f ef       	ldi	r20, 0xFF	; 255
     5ac:	60 e8       	ldi	r22, 0x80	; 128
     5ae:	81 e0       	ldi	r24, 0x01	; 1
     5b0:	0e 94 e0 0d 	call	0x1bc0	; 0x1bc0 <Gpio_PinDirection>
     5b4:	40 e0       	ldi	r20, 0x00	; 0
     5b6:	60 e8       	ldi	r22, 0x80	; 128
     5b8:	81 e0       	ldi	r24, 0x01	; 1
     5ba:	0e 94 8c 0e 	call	0x1d18	; 0x1d18 <Gpio_PinWrite>
     5be:	00 00       	nop
     5c0:	00 00       	nop
     5c2:	0f 90       	pop	r0
     5c4:	df 91       	pop	r29
     5c6:	cf 91       	pop	r28
     5c8:	08 95       	ret

000005ca <Led_Tog>:
     5ca:	cf 93       	push	r28
     5cc:	df 93       	push	r29
     5ce:	1f 92       	push	r1
     5d0:	cd b7       	in	r28, 0x3d	; 61
     5d2:	de b7       	in	r29, 0x3e	; 62
     5d4:	89 83       	std	Y+1, r24	; 0x01
     5d6:	89 81       	ldd	r24, Y+1	; 0x01
     5d8:	88 2f       	mov	r24, r24
     5da:	90 e0       	ldi	r25, 0x00	; 0
     5dc:	80 32       	cpi	r24, 0x20	; 32
     5de:	91 05       	cpc	r25, r1
     5e0:	91 f0       	breq	.+36     	; 0x606 <Led_Tog+0x3c>
     5e2:	81 32       	cpi	r24, 0x21	; 33
     5e4:	91 05       	cpc	r25, r1
     5e6:	1c f4       	brge	.+6      	; 0x5ee <Led_Tog+0x24>
     5e8:	40 97       	sbiw	r24, 0x10	; 16
     5ea:	41 f0       	breq	.+16     	; 0x5fc <Led_Tog+0x32>
     5ec:	1b c0       	rjmp	.+54     	; 0x624 <Led_Tog+0x5a>
     5ee:	80 34       	cpi	r24, 0x40	; 64
     5f0:	91 05       	cpc	r25, r1
     5f2:	71 f0       	breq	.+28     	; 0x610 <Led_Tog+0x46>
     5f4:	80 38       	cpi	r24, 0x80	; 128
     5f6:	91 05       	cpc	r25, r1
     5f8:	81 f0       	breq	.+32     	; 0x61a <Led_Tog+0x50>
     5fa:	14 c0       	rjmp	.+40     	; 0x624 <Led_Tog+0x5a>
     5fc:	60 e1       	ldi	r22, 0x10	; 16
     5fe:	81 e0       	ldi	r24, 0x01	; 1
     600:	0e 94 2b 0f 	call	0x1e56	; 0x1e56 <Gpio_PinToggle>
     604:	0f c0       	rjmp	.+30     	; 0x624 <Led_Tog+0x5a>
     606:	60 e2       	ldi	r22, 0x20	; 32
     608:	81 e0       	ldi	r24, 0x01	; 1
     60a:	0e 94 2b 0f 	call	0x1e56	; 0x1e56 <Gpio_PinToggle>
     60e:	0a c0       	rjmp	.+20     	; 0x624 <Led_Tog+0x5a>
     610:	60 e4       	ldi	r22, 0x40	; 64
     612:	81 e0       	ldi	r24, 0x01	; 1
     614:	0e 94 2b 0f 	call	0x1e56	; 0x1e56 <Gpio_PinToggle>
     618:	05 c0       	rjmp	.+10     	; 0x624 <Led_Tog+0x5a>
     61a:	60 e8       	ldi	r22, 0x80	; 128
     61c:	81 e0       	ldi	r24, 0x01	; 1
     61e:	0e 94 2b 0f 	call	0x1e56	; 0x1e56 <Gpio_PinToggle>
     622:	00 00       	nop
     624:	00 00       	nop
     626:	0f 90       	pop	r0
     628:	df 91       	pop	r29
     62a:	cf 91       	pop	r28
     62c:	08 95       	ret

0000062e <pvPortMalloc>:
     62e:	cf 93       	push	r28
     630:	df 93       	push	r29
     632:	00 d0       	rcall	.+0      	; 0x634 <pvPortMalloc+0x6>
     634:	00 d0       	rcall	.+0      	; 0x636 <pvPortMalloc+0x8>
     636:	cd b7       	in	r28, 0x3d	; 61
     638:	de b7       	in	r29, 0x3e	; 62
     63a:	9c 83       	std	Y+4, r25	; 0x04
     63c:	8b 83       	std	Y+3, r24	; 0x03
     63e:	1a 82       	std	Y+2, r1	; 0x02
     640:	19 82       	std	Y+1, r1	; 0x01
     642:	0e 94 66 0a 	call	0x14cc	; 0x14cc <vTaskSuspendAll>
     646:	80 91 dd 06 	lds	r24, 0x06DD	; 0x8006dd <pucAlignedHeap.2084>
     64a:	90 91 de 06 	lds	r25, 0x06DE	; 0x8006de <pucAlignedHeap.2084+0x1>
     64e:	89 2b       	or	r24, r25
     650:	31 f4       	brne	.+12     	; 0x65e <pvPortMalloc+0x30>
     652:	80 e0       	ldi	r24, 0x00	; 0
     654:	91 e0       	ldi	r25, 0x01	; 1
     656:	90 93 de 06 	sts	0x06DE, r25	; 0x8006de <pucAlignedHeap.2084+0x1>
     65a:	80 93 dd 06 	sts	0x06DD, r24	; 0x8006dd <pucAlignedHeap.2084>
     65e:	20 91 db 06 	lds	r18, 0x06DB	; 0x8006db <xNextFreeByte>
     662:	30 91 dc 06 	lds	r19, 0x06DC	; 0x8006dc <xNextFreeByte+0x1>
     666:	8b 81       	ldd	r24, Y+3	; 0x03
     668:	9c 81       	ldd	r25, Y+4	; 0x04
     66a:	82 0f       	add	r24, r18
     66c:	93 1f       	adc	r25, r19
     66e:	8b 3d       	cpi	r24, 0xDB	; 219
     670:	95 40       	sbci	r25, 0x05	; 5
     672:	38 f5       	brcc	.+78     	; 0x6c2 <pvPortMalloc+0x94>
     674:	20 91 db 06 	lds	r18, 0x06DB	; 0x8006db <xNextFreeByte>
     678:	30 91 dc 06 	lds	r19, 0x06DC	; 0x8006dc <xNextFreeByte+0x1>
     67c:	8b 81       	ldd	r24, Y+3	; 0x03
     67e:	9c 81       	ldd	r25, Y+4	; 0x04
     680:	28 0f       	add	r18, r24
     682:	39 1f       	adc	r19, r25
     684:	80 91 db 06 	lds	r24, 0x06DB	; 0x8006db <xNextFreeByte>
     688:	90 91 dc 06 	lds	r25, 0x06DC	; 0x8006dc <xNextFreeByte+0x1>
     68c:	82 17       	cp	r24, r18
     68e:	93 07       	cpc	r25, r19
     690:	c0 f4       	brcc	.+48     	; 0x6c2 <pvPortMalloc+0x94>
     692:	20 91 dd 06 	lds	r18, 0x06DD	; 0x8006dd <pucAlignedHeap.2084>
     696:	30 91 de 06 	lds	r19, 0x06DE	; 0x8006de <pucAlignedHeap.2084+0x1>
     69a:	80 91 db 06 	lds	r24, 0x06DB	; 0x8006db <xNextFreeByte>
     69e:	90 91 dc 06 	lds	r25, 0x06DC	; 0x8006dc <xNextFreeByte+0x1>
     6a2:	82 0f       	add	r24, r18
     6a4:	93 1f       	adc	r25, r19
     6a6:	9a 83       	std	Y+2, r25	; 0x02
     6a8:	89 83       	std	Y+1, r24	; 0x01
     6aa:	20 91 db 06 	lds	r18, 0x06DB	; 0x8006db <xNextFreeByte>
     6ae:	30 91 dc 06 	lds	r19, 0x06DC	; 0x8006dc <xNextFreeByte+0x1>
     6b2:	8b 81       	ldd	r24, Y+3	; 0x03
     6b4:	9c 81       	ldd	r25, Y+4	; 0x04
     6b6:	82 0f       	add	r24, r18
     6b8:	93 1f       	adc	r25, r19
     6ba:	90 93 dc 06 	sts	0x06DC, r25	; 0x8006dc <xNextFreeByte+0x1>
     6be:	80 93 db 06 	sts	0x06DB, r24	; 0x8006db <xNextFreeByte>
     6c2:	0e 94 73 0a 	call	0x14e6	; 0x14e6 <xTaskResumeAll>
     6c6:	89 81       	ldd	r24, Y+1	; 0x01
     6c8:	9a 81       	ldd	r25, Y+2	; 0x02
     6ca:	0f 90       	pop	r0
     6cc:	0f 90       	pop	r0
     6ce:	0f 90       	pop	r0
     6d0:	0f 90       	pop	r0
     6d2:	df 91       	pop	r29
     6d4:	cf 91       	pop	r28
     6d6:	08 95       	ret

000006d8 <vPortFree>:
     6d8:	cf 93       	push	r28
     6da:	df 93       	push	r29
     6dc:	00 d0       	rcall	.+0      	; 0x6de <vPortFree+0x6>
     6de:	cd b7       	in	r28, 0x3d	; 61
     6e0:	de b7       	in	r29, 0x3e	; 62
     6e2:	9a 83       	std	Y+2, r25	; 0x02
     6e4:	89 83       	std	Y+1, r24	; 0x01
     6e6:	00 00       	nop
     6e8:	0f 90       	pop	r0
     6ea:	0f 90       	pop	r0
     6ec:	df 91       	pop	r29
     6ee:	cf 91       	pop	r28
     6f0:	08 95       	ret

000006f2 <vListInitialise>:
     6f2:	cf 93       	push	r28
     6f4:	df 93       	push	r29
     6f6:	00 d0       	rcall	.+0      	; 0x6f8 <vListInitialise+0x6>
     6f8:	cd b7       	in	r28, 0x3d	; 61
     6fa:	de b7       	in	r29, 0x3e	; 62
     6fc:	9a 83       	std	Y+2, r25	; 0x02
     6fe:	89 83       	std	Y+1, r24	; 0x01
     700:	89 81       	ldd	r24, Y+1	; 0x01
     702:	9a 81       	ldd	r25, Y+2	; 0x02
     704:	9c 01       	movw	r18, r24
     706:	2d 5f       	subi	r18, 0xFD	; 253
     708:	3f 4f       	sbci	r19, 0xFF	; 255
     70a:	89 81       	ldd	r24, Y+1	; 0x01
     70c:	9a 81       	ldd	r25, Y+2	; 0x02
     70e:	fc 01       	movw	r30, r24
     710:	32 83       	std	Z+2, r19	; 0x02
     712:	21 83       	std	Z+1, r18	; 0x01
     714:	89 81       	ldd	r24, Y+1	; 0x01
     716:	9a 81       	ldd	r25, Y+2	; 0x02
     718:	2f ef       	ldi	r18, 0xFF	; 255
     71a:	3f ef       	ldi	r19, 0xFF	; 255
     71c:	fc 01       	movw	r30, r24
     71e:	34 83       	std	Z+4, r19	; 0x04
     720:	23 83       	std	Z+3, r18	; 0x03
     722:	89 81       	ldd	r24, Y+1	; 0x01
     724:	9a 81       	ldd	r25, Y+2	; 0x02
     726:	9c 01       	movw	r18, r24
     728:	2d 5f       	subi	r18, 0xFD	; 253
     72a:	3f 4f       	sbci	r19, 0xFF	; 255
     72c:	89 81       	ldd	r24, Y+1	; 0x01
     72e:	9a 81       	ldd	r25, Y+2	; 0x02
     730:	fc 01       	movw	r30, r24
     732:	36 83       	std	Z+6, r19	; 0x06
     734:	25 83       	std	Z+5, r18	; 0x05
     736:	89 81       	ldd	r24, Y+1	; 0x01
     738:	9a 81       	ldd	r25, Y+2	; 0x02
     73a:	9c 01       	movw	r18, r24
     73c:	2d 5f       	subi	r18, 0xFD	; 253
     73e:	3f 4f       	sbci	r19, 0xFF	; 255
     740:	89 81       	ldd	r24, Y+1	; 0x01
     742:	9a 81       	ldd	r25, Y+2	; 0x02
     744:	fc 01       	movw	r30, r24
     746:	30 87       	std	Z+8, r19	; 0x08
     748:	27 83       	std	Z+7, r18	; 0x07
     74a:	89 81       	ldd	r24, Y+1	; 0x01
     74c:	9a 81       	ldd	r25, Y+2	; 0x02
     74e:	fc 01       	movw	r30, r24
     750:	10 82       	st	Z, r1
     752:	00 00       	nop
     754:	0f 90       	pop	r0
     756:	0f 90       	pop	r0
     758:	df 91       	pop	r29
     75a:	cf 91       	pop	r28
     75c:	08 95       	ret

0000075e <vListInitialiseItem>:
     75e:	cf 93       	push	r28
     760:	df 93       	push	r29
     762:	00 d0       	rcall	.+0      	; 0x764 <vListInitialiseItem+0x6>
     764:	cd b7       	in	r28, 0x3d	; 61
     766:	de b7       	in	r29, 0x3e	; 62
     768:	9a 83       	std	Y+2, r25	; 0x02
     76a:	89 83       	std	Y+1, r24	; 0x01
     76c:	89 81       	ldd	r24, Y+1	; 0x01
     76e:	9a 81       	ldd	r25, Y+2	; 0x02
     770:	fc 01       	movw	r30, r24
     772:	11 86       	std	Z+9, r1	; 0x09
     774:	10 86       	std	Z+8, r1	; 0x08
     776:	00 00       	nop
     778:	0f 90       	pop	r0
     77a:	0f 90       	pop	r0
     77c:	df 91       	pop	r29
     77e:	cf 91       	pop	r28
     780:	08 95       	ret

00000782 <vListInsertEnd>:
     782:	cf 93       	push	r28
     784:	df 93       	push	r29
     786:	00 d0       	rcall	.+0      	; 0x788 <vListInsertEnd+0x6>
     788:	00 d0       	rcall	.+0      	; 0x78a <vListInsertEnd+0x8>
     78a:	00 d0       	rcall	.+0      	; 0x78c <vListInsertEnd+0xa>
     78c:	cd b7       	in	r28, 0x3d	; 61
     78e:	de b7       	in	r29, 0x3e	; 62
     790:	9c 83       	std	Y+4, r25	; 0x04
     792:	8b 83       	std	Y+3, r24	; 0x03
     794:	7e 83       	std	Y+6, r23	; 0x06
     796:	6d 83       	std	Y+5, r22	; 0x05
     798:	8b 81       	ldd	r24, Y+3	; 0x03
     79a:	9c 81       	ldd	r25, Y+4	; 0x04
     79c:	fc 01       	movw	r30, r24
     79e:	81 81       	ldd	r24, Z+1	; 0x01
     7a0:	92 81       	ldd	r25, Z+2	; 0x02
     7a2:	9a 83       	std	Y+2, r25	; 0x02
     7a4:	89 83       	std	Y+1, r24	; 0x01
     7a6:	8d 81       	ldd	r24, Y+5	; 0x05
     7a8:	9e 81       	ldd	r25, Y+6	; 0x06
     7aa:	29 81       	ldd	r18, Y+1	; 0x01
     7ac:	3a 81       	ldd	r19, Y+2	; 0x02
     7ae:	fc 01       	movw	r30, r24
     7b0:	33 83       	std	Z+3, r19	; 0x03
     7b2:	22 83       	std	Z+2, r18	; 0x02
     7b4:	89 81       	ldd	r24, Y+1	; 0x01
     7b6:	9a 81       	ldd	r25, Y+2	; 0x02
     7b8:	fc 01       	movw	r30, r24
     7ba:	24 81       	ldd	r18, Z+4	; 0x04
     7bc:	35 81       	ldd	r19, Z+5	; 0x05
     7be:	8d 81       	ldd	r24, Y+5	; 0x05
     7c0:	9e 81       	ldd	r25, Y+6	; 0x06
     7c2:	fc 01       	movw	r30, r24
     7c4:	35 83       	std	Z+5, r19	; 0x05
     7c6:	24 83       	std	Z+4, r18	; 0x04
     7c8:	89 81       	ldd	r24, Y+1	; 0x01
     7ca:	9a 81       	ldd	r25, Y+2	; 0x02
     7cc:	fc 01       	movw	r30, r24
     7ce:	84 81       	ldd	r24, Z+4	; 0x04
     7d0:	95 81       	ldd	r25, Z+5	; 0x05
     7d2:	2d 81       	ldd	r18, Y+5	; 0x05
     7d4:	3e 81       	ldd	r19, Y+6	; 0x06
     7d6:	fc 01       	movw	r30, r24
     7d8:	33 83       	std	Z+3, r19	; 0x03
     7da:	22 83       	std	Z+2, r18	; 0x02
     7dc:	89 81       	ldd	r24, Y+1	; 0x01
     7de:	9a 81       	ldd	r25, Y+2	; 0x02
     7e0:	2d 81       	ldd	r18, Y+5	; 0x05
     7e2:	3e 81       	ldd	r19, Y+6	; 0x06
     7e4:	fc 01       	movw	r30, r24
     7e6:	35 83       	std	Z+5, r19	; 0x05
     7e8:	24 83       	std	Z+4, r18	; 0x04
     7ea:	8d 81       	ldd	r24, Y+5	; 0x05
     7ec:	9e 81       	ldd	r25, Y+6	; 0x06
     7ee:	2b 81       	ldd	r18, Y+3	; 0x03
     7f0:	3c 81       	ldd	r19, Y+4	; 0x04
     7f2:	fc 01       	movw	r30, r24
     7f4:	31 87       	std	Z+9, r19	; 0x09
     7f6:	20 87       	std	Z+8, r18	; 0x08
     7f8:	8b 81       	ldd	r24, Y+3	; 0x03
     7fa:	9c 81       	ldd	r25, Y+4	; 0x04
     7fc:	fc 01       	movw	r30, r24
     7fe:	80 81       	ld	r24, Z
     800:	21 e0       	ldi	r18, 0x01	; 1
     802:	28 0f       	add	r18, r24
     804:	8b 81       	ldd	r24, Y+3	; 0x03
     806:	9c 81       	ldd	r25, Y+4	; 0x04
     808:	fc 01       	movw	r30, r24
     80a:	20 83       	st	Z, r18
     80c:	00 00       	nop
     80e:	26 96       	adiw	r28, 0x06	; 6
     810:	0f b6       	in	r0, 0x3f	; 63
     812:	f8 94       	cli
     814:	de bf       	out	0x3e, r29	; 62
     816:	0f be       	out	0x3f, r0	; 63
     818:	cd bf       	out	0x3d, r28	; 61
     81a:	df 91       	pop	r29
     81c:	cf 91       	pop	r28
     81e:	08 95       	ret

00000820 <vListInsert>:
     820:	cf 93       	push	r28
     822:	df 93       	push	r29
     824:	cd b7       	in	r28, 0x3d	; 61
     826:	de b7       	in	r29, 0x3e	; 62
     828:	28 97       	sbiw	r28, 0x08	; 8
     82a:	0f b6       	in	r0, 0x3f	; 63
     82c:	f8 94       	cli
     82e:	de bf       	out	0x3e, r29	; 62
     830:	0f be       	out	0x3f, r0	; 63
     832:	cd bf       	out	0x3d, r28	; 61
     834:	9e 83       	std	Y+6, r25	; 0x06
     836:	8d 83       	std	Y+5, r24	; 0x05
     838:	78 87       	std	Y+8, r23	; 0x08
     83a:	6f 83       	std	Y+7, r22	; 0x07
     83c:	8f 81       	ldd	r24, Y+7	; 0x07
     83e:	98 85       	ldd	r25, Y+8	; 0x08
     840:	fc 01       	movw	r30, r24
     842:	80 81       	ld	r24, Z
     844:	91 81       	ldd	r25, Z+1	; 0x01
     846:	9c 83       	std	Y+4, r25	; 0x04
     848:	8b 83       	std	Y+3, r24	; 0x03
     84a:	8b 81       	ldd	r24, Y+3	; 0x03
     84c:	9c 81       	ldd	r25, Y+4	; 0x04
     84e:	01 96       	adiw	r24, 0x01	; 1
     850:	41 f4       	brne	.+16     	; 0x862 <__stack+0x3>
     852:	8d 81       	ldd	r24, Y+5	; 0x05
     854:	9e 81       	ldd	r25, Y+6	; 0x06
     856:	fc 01       	movw	r30, r24
     858:	87 81       	ldd	r24, Z+7	; 0x07
     85a:	90 85       	ldd	r25, Z+8	; 0x08
     85c:	9a 83       	std	Y+2, r25	; 0x02
     85e:	89 83       	std	Y+1, r24	; 0x01
     860:	1a c0       	rjmp	.+52     	; 0x896 <__stack+0x37>
     862:	8d 81       	ldd	r24, Y+5	; 0x05
     864:	9e 81       	ldd	r25, Y+6	; 0x06
     866:	03 96       	adiw	r24, 0x03	; 3
     868:	9a 83       	std	Y+2, r25	; 0x02
     86a:	89 83       	std	Y+1, r24	; 0x01
     86c:	07 c0       	rjmp	.+14     	; 0x87c <__stack+0x1d>
     86e:	89 81       	ldd	r24, Y+1	; 0x01
     870:	9a 81       	ldd	r25, Y+2	; 0x02
     872:	fc 01       	movw	r30, r24
     874:	82 81       	ldd	r24, Z+2	; 0x02
     876:	93 81       	ldd	r25, Z+3	; 0x03
     878:	9a 83       	std	Y+2, r25	; 0x02
     87a:	89 83       	std	Y+1, r24	; 0x01
     87c:	89 81       	ldd	r24, Y+1	; 0x01
     87e:	9a 81       	ldd	r25, Y+2	; 0x02
     880:	fc 01       	movw	r30, r24
     882:	82 81       	ldd	r24, Z+2	; 0x02
     884:	93 81       	ldd	r25, Z+3	; 0x03
     886:	fc 01       	movw	r30, r24
     888:	20 81       	ld	r18, Z
     88a:	31 81       	ldd	r19, Z+1	; 0x01
     88c:	8b 81       	ldd	r24, Y+3	; 0x03
     88e:	9c 81       	ldd	r25, Y+4	; 0x04
     890:	82 17       	cp	r24, r18
     892:	93 07       	cpc	r25, r19
     894:	60 f7       	brcc	.-40     	; 0x86e <__stack+0xf>
     896:	89 81       	ldd	r24, Y+1	; 0x01
     898:	9a 81       	ldd	r25, Y+2	; 0x02
     89a:	fc 01       	movw	r30, r24
     89c:	22 81       	ldd	r18, Z+2	; 0x02
     89e:	33 81       	ldd	r19, Z+3	; 0x03
     8a0:	8f 81       	ldd	r24, Y+7	; 0x07
     8a2:	98 85       	ldd	r25, Y+8	; 0x08
     8a4:	fc 01       	movw	r30, r24
     8a6:	33 83       	std	Z+3, r19	; 0x03
     8a8:	22 83       	std	Z+2, r18	; 0x02
     8aa:	8f 81       	ldd	r24, Y+7	; 0x07
     8ac:	98 85       	ldd	r25, Y+8	; 0x08
     8ae:	fc 01       	movw	r30, r24
     8b0:	82 81       	ldd	r24, Z+2	; 0x02
     8b2:	93 81       	ldd	r25, Z+3	; 0x03
     8b4:	2f 81       	ldd	r18, Y+7	; 0x07
     8b6:	38 85       	ldd	r19, Y+8	; 0x08
     8b8:	fc 01       	movw	r30, r24
     8ba:	35 83       	std	Z+5, r19	; 0x05
     8bc:	24 83       	std	Z+4, r18	; 0x04
     8be:	8f 81       	ldd	r24, Y+7	; 0x07
     8c0:	98 85       	ldd	r25, Y+8	; 0x08
     8c2:	29 81       	ldd	r18, Y+1	; 0x01
     8c4:	3a 81       	ldd	r19, Y+2	; 0x02
     8c6:	fc 01       	movw	r30, r24
     8c8:	35 83       	std	Z+5, r19	; 0x05
     8ca:	24 83       	std	Z+4, r18	; 0x04
     8cc:	89 81       	ldd	r24, Y+1	; 0x01
     8ce:	9a 81       	ldd	r25, Y+2	; 0x02
     8d0:	2f 81       	ldd	r18, Y+7	; 0x07
     8d2:	38 85       	ldd	r19, Y+8	; 0x08
     8d4:	fc 01       	movw	r30, r24
     8d6:	33 83       	std	Z+3, r19	; 0x03
     8d8:	22 83       	std	Z+2, r18	; 0x02
     8da:	8f 81       	ldd	r24, Y+7	; 0x07
     8dc:	98 85       	ldd	r25, Y+8	; 0x08
     8de:	2d 81       	ldd	r18, Y+5	; 0x05
     8e0:	3e 81       	ldd	r19, Y+6	; 0x06
     8e2:	fc 01       	movw	r30, r24
     8e4:	31 87       	std	Z+9, r19	; 0x09
     8e6:	20 87       	std	Z+8, r18	; 0x08
     8e8:	8d 81       	ldd	r24, Y+5	; 0x05
     8ea:	9e 81       	ldd	r25, Y+6	; 0x06
     8ec:	fc 01       	movw	r30, r24
     8ee:	80 81       	ld	r24, Z
     8f0:	21 e0       	ldi	r18, 0x01	; 1
     8f2:	28 0f       	add	r18, r24
     8f4:	8d 81       	ldd	r24, Y+5	; 0x05
     8f6:	9e 81       	ldd	r25, Y+6	; 0x06
     8f8:	fc 01       	movw	r30, r24
     8fa:	20 83       	st	Z, r18
     8fc:	00 00       	nop
     8fe:	28 96       	adiw	r28, 0x08	; 8
     900:	0f b6       	in	r0, 0x3f	; 63
     902:	f8 94       	cli
     904:	de bf       	out	0x3e, r29	; 62
     906:	0f be       	out	0x3f, r0	; 63
     908:	cd bf       	out	0x3d, r28	; 61
     90a:	df 91       	pop	r29
     90c:	cf 91       	pop	r28
     90e:	08 95       	ret

00000910 <uxListRemove>:
     910:	cf 93       	push	r28
     912:	df 93       	push	r29
     914:	00 d0       	rcall	.+0      	; 0x916 <uxListRemove+0x6>
     916:	00 d0       	rcall	.+0      	; 0x918 <uxListRemove+0x8>
     918:	cd b7       	in	r28, 0x3d	; 61
     91a:	de b7       	in	r29, 0x3e	; 62
     91c:	9c 83       	std	Y+4, r25	; 0x04
     91e:	8b 83       	std	Y+3, r24	; 0x03
     920:	8b 81       	ldd	r24, Y+3	; 0x03
     922:	9c 81       	ldd	r25, Y+4	; 0x04
     924:	fc 01       	movw	r30, r24
     926:	80 85       	ldd	r24, Z+8	; 0x08
     928:	91 85       	ldd	r25, Z+9	; 0x09
     92a:	9a 83       	std	Y+2, r25	; 0x02
     92c:	89 83       	std	Y+1, r24	; 0x01
     92e:	8b 81       	ldd	r24, Y+3	; 0x03
     930:	9c 81       	ldd	r25, Y+4	; 0x04
     932:	fc 01       	movw	r30, r24
     934:	82 81       	ldd	r24, Z+2	; 0x02
     936:	93 81       	ldd	r25, Z+3	; 0x03
     938:	2b 81       	ldd	r18, Y+3	; 0x03
     93a:	3c 81       	ldd	r19, Y+4	; 0x04
     93c:	f9 01       	movw	r30, r18
     93e:	24 81       	ldd	r18, Z+4	; 0x04
     940:	35 81       	ldd	r19, Z+5	; 0x05
     942:	fc 01       	movw	r30, r24
     944:	35 83       	std	Z+5, r19	; 0x05
     946:	24 83       	std	Z+4, r18	; 0x04
     948:	8b 81       	ldd	r24, Y+3	; 0x03
     94a:	9c 81       	ldd	r25, Y+4	; 0x04
     94c:	fc 01       	movw	r30, r24
     94e:	84 81       	ldd	r24, Z+4	; 0x04
     950:	95 81       	ldd	r25, Z+5	; 0x05
     952:	2b 81       	ldd	r18, Y+3	; 0x03
     954:	3c 81       	ldd	r19, Y+4	; 0x04
     956:	f9 01       	movw	r30, r18
     958:	22 81       	ldd	r18, Z+2	; 0x02
     95a:	33 81       	ldd	r19, Z+3	; 0x03
     95c:	fc 01       	movw	r30, r24
     95e:	33 83       	std	Z+3, r19	; 0x03
     960:	22 83       	std	Z+2, r18	; 0x02
     962:	89 81       	ldd	r24, Y+1	; 0x01
     964:	9a 81       	ldd	r25, Y+2	; 0x02
     966:	fc 01       	movw	r30, r24
     968:	21 81       	ldd	r18, Z+1	; 0x01
     96a:	32 81       	ldd	r19, Z+2	; 0x02
     96c:	8b 81       	ldd	r24, Y+3	; 0x03
     96e:	9c 81       	ldd	r25, Y+4	; 0x04
     970:	28 17       	cp	r18, r24
     972:	39 07       	cpc	r19, r25
     974:	51 f4       	brne	.+20     	; 0x98a <uxListRemove+0x7a>
     976:	8b 81       	ldd	r24, Y+3	; 0x03
     978:	9c 81       	ldd	r25, Y+4	; 0x04
     97a:	fc 01       	movw	r30, r24
     97c:	24 81       	ldd	r18, Z+4	; 0x04
     97e:	35 81       	ldd	r19, Z+5	; 0x05
     980:	89 81       	ldd	r24, Y+1	; 0x01
     982:	9a 81       	ldd	r25, Y+2	; 0x02
     984:	fc 01       	movw	r30, r24
     986:	32 83       	std	Z+2, r19	; 0x02
     988:	21 83       	std	Z+1, r18	; 0x01
     98a:	8b 81       	ldd	r24, Y+3	; 0x03
     98c:	9c 81       	ldd	r25, Y+4	; 0x04
     98e:	fc 01       	movw	r30, r24
     990:	11 86       	std	Z+9, r1	; 0x09
     992:	10 86       	std	Z+8, r1	; 0x08
     994:	89 81       	ldd	r24, Y+1	; 0x01
     996:	9a 81       	ldd	r25, Y+2	; 0x02
     998:	fc 01       	movw	r30, r24
     99a:	80 81       	ld	r24, Z
     99c:	2f ef       	ldi	r18, 0xFF	; 255
     99e:	28 0f       	add	r18, r24
     9a0:	89 81       	ldd	r24, Y+1	; 0x01
     9a2:	9a 81       	ldd	r25, Y+2	; 0x02
     9a4:	fc 01       	movw	r30, r24
     9a6:	20 83       	st	Z, r18
     9a8:	89 81       	ldd	r24, Y+1	; 0x01
     9aa:	9a 81       	ldd	r25, Y+2	; 0x02
     9ac:	fc 01       	movw	r30, r24
     9ae:	80 81       	ld	r24, Z
     9b0:	0f 90       	pop	r0
     9b2:	0f 90       	pop	r0
     9b4:	0f 90       	pop	r0
     9b6:	0f 90       	pop	r0
     9b8:	df 91       	pop	r29
     9ba:	cf 91       	pop	r28
     9bc:	08 95       	ret

000009be <pxPortInitialiseStack>:
     9be:	cf 93       	push	r28
     9c0:	df 93       	push	r29
     9c2:	cd b7       	in	r28, 0x3d	; 61
     9c4:	de b7       	in	r29, 0x3e	; 62
     9c6:	28 97       	sbiw	r28, 0x08	; 8
     9c8:	0f b6       	in	r0, 0x3f	; 63
     9ca:	f8 94       	cli
     9cc:	de bf       	out	0x3e, r29	; 62
     9ce:	0f be       	out	0x3f, r0	; 63
     9d0:	cd bf       	out	0x3d, r28	; 61
     9d2:	9c 83       	std	Y+4, r25	; 0x04
     9d4:	8b 83       	std	Y+3, r24	; 0x03
     9d6:	7e 83       	std	Y+6, r23	; 0x06
     9d8:	6d 83       	std	Y+5, r22	; 0x05
     9da:	58 87       	std	Y+8, r21	; 0x08
     9dc:	4f 83       	std	Y+7, r20	; 0x07
     9de:	8b 81       	ldd	r24, Y+3	; 0x03
     9e0:	9c 81       	ldd	r25, Y+4	; 0x04
     9e2:	21 e1       	ldi	r18, 0x11	; 17
     9e4:	fc 01       	movw	r30, r24
     9e6:	20 83       	st	Z, r18
     9e8:	8b 81       	ldd	r24, Y+3	; 0x03
     9ea:	9c 81       	ldd	r25, Y+4	; 0x04
     9ec:	01 97       	sbiw	r24, 0x01	; 1
     9ee:	9c 83       	std	Y+4, r25	; 0x04
     9f0:	8b 83       	std	Y+3, r24	; 0x03
     9f2:	8b 81       	ldd	r24, Y+3	; 0x03
     9f4:	9c 81       	ldd	r25, Y+4	; 0x04
     9f6:	22 e2       	ldi	r18, 0x22	; 34
     9f8:	fc 01       	movw	r30, r24
     9fa:	20 83       	st	Z, r18
     9fc:	8b 81       	ldd	r24, Y+3	; 0x03
     9fe:	9c 81       	ldd	r25, Y+4	; 0x04
     a00:	01 97       	sbiw	r24, 0x01	; 1
     a02:	9c 83       	std	Y+4, r25	; 0x04
     a04:	8b 83       	std	Y+3, r24	; 0x03
     a06:	8b 81       	ldd	r24, Y+3	; 0x03
     a08:	9c 81       	ldd	r25, Y+4	; 0x04
     a0a:	23 e3       	ldi	r18, 0x33	; 51
     a0c:	fc 01       	movw	r30, r24
     a0e:	20 83       	st	Z, r18
     a10:	8b 81       	ldd	r24, Y+3	; 0x03
     a12:	9c 81       	ldd	r25, Y+4	; 0x04
     a14:	01 97       	sbiw	r24, 0x01	; 1
     a16:	9c 83       	std	Y+4, r25	; 0x04
     a18:	8b 83       	std	Y+3, r24	; 0x03
     a1a:	8d 81       	ldd	r24, Y+5	; 0x05
     a1c:	9e 81       	ldd	r25, Y+6	; 0x06
     a1e:	9a 83       	std	Y+2, r25	; 0x02
     a20:	89 83       	std	Y+1, r24	; 0x01
     a22:	29 81       	ldd	r18, Y+1	; 0x01
     a24:	8b 81       	ldd	r24, Y+3	; 0x03
     a26:	9c 81       	ldd	r25, Y+4	; 0x04
     a28:	fc 01       	movw	r30, r24
     a2a:	20 83       	st	Z, r18
     a2c:	8b 81       	ldd	r24, Y+3	; 0x03
     a2e:	9c 81       	ldd	r25, Y+4	; 0x04
     a30:	01 97       	sbiw	r24, 0x01	; 1
     a32:	9c 83       	std	Y+4, r25	; 0x04
     a34:	8b 83       	std	Y+3, r24	; 0x03
     a36:	89 81       	ldd	r24, Y+1	; 0x01
     a38:	9a 81       	ldd	r25, Y+2	; 0x02
     a3a:	89 2f       	mov	r24, r25
     a3c:	99 27       	eor	r25, r25
     a3e:	9a 83       	std	Y+2, r25	; 0x02
     a40:	89 83       	std	Y+1, r24	; 0x01
     a42:	29 81       	ldd	r18, Y+1	; 0x01
     a44:	8b 81       	ldd	r24, Y+3	; 0x03
     a46:	9c 81       	ldd	r25, Y+4	; 0x04
     a48:	fc 01       	movw	r30, r24
     a4a:	20 83       	st	Z, r18
     a4c:	8b 81       	ldd	r24, Y+3	; 0x03
     a4e:	9c 81       	ldd	r25, Y+4	; 0x04
     a50:	01 97       	sbiw	r24, 0x01	; 1
     a52:	9c 83       	std	Y+4, r25	; 0x04
     a54:	8b 83       	std	Y+3, r24	; 0x03
     a56:	8b 81       	ldd	r24, Y+3	; 0x03
     a58:	9c 81       	ldd	r25, Y+4	; 0x04
     a5a:	fc 01       	movw	r30, r24
     a5c:	10 82       	st	Z, r1
     a5e:	8b 81       	ldd	r24, Y+3	; 0x03
     a60:	9c 81       	ldd	r25, Y+4	; 0x04
     a62:	01 97       	sbiw	r24, 0x01	; 1
     a64:	9c 83       	std	Y+4, r25	; 0x04
     a66:	8b 83       	std	Y+3, r24	; 0x03
     a68:	8b 81       	ldd	r24, Y+3	; 0x03
     a6a:	9c 81       	ldd	r25, Y+4	; 0x04
     a6c:	20 e8       	ldi	r18, 0x80	; 128
     a6e:	fc 01       	movw	r30, r24
     a70:	20 83       	st	Z, r18
     a72:	8b 81       	ldd	r24, Y+3	; 0x03
     a74:	9c 81       	ldd	r25, Y+4	; 0x04
     a76:	01 97       	sbiw	r24, 0x01	; 1
     a78:	9c 83       	std	Y+4, r25	; 0x04
     a7a:	8b 83       	std	Y+3, r24	; 0x03
     a7c:	8b 81       	ldd	r24, Y+3	; 0x03
     a7e:	9c 81       	ldd	r25, Y+4	; 0x04
     a80:	fc 01       	movw	r30, r24
     a82:	10 82       	st	Z, r1
     a84:	8b 81       	ldd	r24, Y+3	; 0x03
     a86:	9c 81       	ldd	r25, Y+4	; 0x04
     a88:	01 97       	sbiw	r24, 0x01	; 1
     a8a:	9c 83       	std	Y+4, r25	; 0x04
     a8c:	8b 83       	std	Y+3, r24	; 0x03
     a8e:	8b 81       	ldd	r24, Y+3	; 0x03
     a90:	9c 81       	ldd	r25, Y+4	; 0x04
     a92:	22 e0       	ldi	r18, 0x02	; 2
     a94:	fc 01       	movw	r30, r24
     a96:	20 83       	st	Z, r18
     a98:	8b 81       	ldd	r24, Y+3	; 0x03
     a9a:	9c 81       	ldd	r25, Y+4	; 0x04
     a9c:	01 97       	sbiw	r24, 0x01	; 1
     a9e:	9c 83       	std	Y+4, r25	; 0x04
     aa0:	8b 83       	std	Y+3, r24	; 0x03
     aa2:	8b 81       	ldd	r24, Y+3	; 0x03
     aa4:	9c 81       	ldd	r25, Y+4	; 0x04
     aa6:	23 e0       	ldi	r18, 0x03	; 3
     aa8:	fc 01       	movw	r30, r24
     aaa:	20 83       	st	Z, r18
     aac:	8b 81       	ldd	r24, Y+3	; 0x03
     aae:	9c 81       	ldd	r25, Y+4	; 0x04
     ab0:	01 97       	sbiw	r24, 0x01	; 1
     ab2:	9c 83       	std	Y+4, r25	; 0x04
     ab4:	8b 83       	std	Y+3, r24	; 0x03
     ab6:	8b 81       	ldd	r24, Y+3	; 0x03
     ab8:	9c 81       	ldd	r25, Y+4	; 0x04
     aba:	24 e0       	ldi	r18, 0x04	; 4
     abc:	fc 01       	movw	r30, r24
     abe:	20 83       	st	Z, r18
     ac0:	8b 81       	ldd	r24, Y+3	; 0x03
     ac2:	9c 81       	ldd	r25, Y+4	; 0x04
     ac4:	01 97       	sbiw	r24, 0x01	; 1
     ac6:	9c 83       	std	Y+4, r25	; 0x04
     ac8:	8b 83       	std	Y+3, r24	; 0x03
     aca:	8b 81       	ldd	r24, Y+3	; 0x03
     acc:	9c 81       	ldd	r25, Y+4	; 0x04
     ace:	25 e0       	ldi	r18, 0x05	; 5
     ad0:	fc 01       	movw	r30, r24
     ad2:	20 83       	st	Z, r18
     ad4:	8b 81       	ldd	r24, Y+3	; 0x03
     ad6:	9c 81       	ldd	r25, Y+4	; 0x04
     ad8:	01 97       	sbiw	r24, 0x01	; 1
     ada:	9c 83       	std	Y+4, r25	; 0x04
     adc:	8b 83       	std	Y+3, r24	; 0x03
     ade:	8b 81       	ldd	r24, Y+3	; 0x03
     ae0:	9c 81       	ldd	r25, Y+4	; 0x04
     ae2:	26 e0       	ldi	r18, 0x06	; 6
     ae4:	fc 01       	movw	r30, r24
     ae6:	20 83       	st	Z, r18
     ae8:	8b 81       	ldd	r24, Y+3	; 0x03
     aea:	9c 81       	ldd	r25, Y+4	; 0x04
     aec:	01 97       	sbiw	r24, 0x01	; 1
     aee:	9c 83       	std	Y+4, r25	; 0x04
     af0:	8b 83       	std	Y+3, r24	; 0x03
     af2:	8b 81       	ldd	r24, Y+3	; 0x03
     af4:	9c 81       	ldd	r25, Y+4	; 0x04
     af6:	27 e0       	ldi	r18, 0x07	; 7
     af8:	fc 01       	movw	r30, r24
     afa:	20 83       	st	Z, r18
     afc:	8b 81       	ldd	r24, Y+3	; 0x03
     afe:	9c 81       	ldd	r25, Y+4	; 0x04
     b00:	01 97       	sbiw	r24, 0x01	; 1
     b02:	9c 83       	std	Y+4, r25	; 0x04
     b04:	8b 83       	std	Y+3, r24	; 0x03
     b06:	8b 81       	ldd	r24, Y+3	; 0x03
     b08:	9c 81       	ldd	r25, Y+4	; 0x04
     b0a:	28 e0       	ldi	r18, 0x08	; 8
     b0c:	fc 01       	movw	r30, r24
     b0e:	20 83       	st	Z, r18
     b10:	8b 81       	ldd	r24, Y+3	; 0x03
     b12:	9c 81       	ldd	r25, Y+4	; 0x04
     b14:	01 97       	sbiw	r24, 0x01	; 1
     b16:	9c 83       	std	Y+4, r25	; 0x04
     b18:	8b 83       	std	Y+3, r24	; 0x03
     b1a:	8b 81       	ldd	r24, Y+3	; 0x03
     b1c:	9c 81       	ldd	r25, Y+4	; 0x04
     b1e:	29 e0       	ldi	r18, 0x09	; 9
     b20:	fc 01       	movw	r30, r24
     b22:	20 83       	st	Z, r18
     b24:	8b 81       	ldd	r24, Y+3	; 0x03
     b26:	9c 81       	ldd	r25, Y+4	; 0x04
     b28:	01 97       	sbiw	r24, 0x01	; 1
     b2a:	9c 83       	std	Y+4, r25	; 0x04
     b2c:	8b 83       	std	Y+3, r24	; 0x03
     b2e:	8b 81       	ldd	r24, Y+3	; 0x03
     b30:	9c 81       	ldd	r25, Y+4	; 0x04
     b32:	20 e1       	ldi	r18, 0x10	; 16
     b34:	fc 01       	movw	r30, r24
     b36:	20 83       	st	Z, r18
     b38:	8b 81       	ldd	r24, Y+3	; 0x03
     b3a:	9c 81       	ldd	r25, Y+4	; 0x04
     b3c:	01 97       	sbiw	r24, 0x01	; 1
     b3e:	9c 83       	std	Y+4, r25	; 0x04
     b40:	8b 83       	std	Y+3, r24	; 0x03
     b42:	8b 81       	ldd	r24, Y+3	; 0x03
     b44:	9c 81       	ldd	r25, Y+4	; 0x04
     b46:	21 e1       	ldi	r18, 0x11	; 17
     b48:	fc 01       	movw	r30, r24
     b4a:	20 83       	st	Z, r18
     b4c:	8b 81       	ldd	r24, Y+3	; 0x03
     b4e:	9c 81       	ldd	r25, Y+4	; 0x04
     b50:	01 97       	sbiw	r24, 0x01	; 1
     b52:	9c 83       	std	Y+4, r25	; 0x04
     b54:	8b 83       	std	Y+3, r24	; 0x03
     b56:	8b 81       	ldd	r24, Y+3	; 0x03
     b58:	9c 81       	ldd	r25, Y+4	; 0x04
     b5a:	22 e1       	ldi	r18, 0x12	; 18
     b5c:	fc 01       	movw	r30, r24
     b5e:	20 83       	st	Z, r18
     b60:	8b 81       	ldd	r24, Y+3	; 0x03
     b62:	9c 81       	ldd	r25, Y+4	; 0x04
     b64:	01 97       	sbiw	r24, 0x01	; 1
     b66:	9c 83       	std	Y+4, r25	; 0x04
     b68:	8b 83       	std	Y+3, r24	; 0x03
     b6a:	8b 81       	ldd	r24, Y+3	; 0x03
     b6c:	9c 81       	ldd	r25, Y+4	; 0x04
     b6e:	23 e1       	ldi	r18, 0x13	; 19
     b70:	fc 01       	movw	r30, r24
     b72:	20 83       	st	Z, r18
     b74:	8b 81       	ldd	r24, Y+3	; 0x03
     b76:	9c 81       	ldd	r25, Y+4	; 0x04
     b78:	01 97       	sbiw	r24, 0x01	; 1
     b7a:	9c 83       	std	Y+4, r25	; 0x04
     b7c:	8b 83       	std	Y+3, r24	; 0x03
     b7e:	8b 81       	ldd	r24, Y+3	; 0x03
     b80:	9c 81       	ldd	r25, Y+4	; 0x04
     b82:	24 e1       	ldi	r18, 0x14	; 20
     b84:	fc 01       	movw	r30, r24
     b86:	20 83       	st	Z, r18
     b88:	8b 81       	ldd	r24, Y+3	; 0x03
     b8a:	9c 81       	ldd	r25, Y+4	; 0x04
     b8c:	01 97       	sbiw	r24, 0x01	; 1
     b8e:	9c 83       	std	Y+4, r25	; 0x04
     b90:	8b 83       	std	Y+3, r24	; 0x03
     b92:	8b 81       	ldd	r24, Y+3	; 0x03
     b94:	9c 81       	ldd	r25, Y+4	; 0x04
     b96:	25 e1       	ldi	r18, 0x15	; 21
     b98:	fc 01       	movw	r30, r24
     b9a:	20 83       	st	Z, r18
     b9c:	8b 81       	ldd	r24, Y+3	; 0x03
     b9e:	9c 81       	ldd	r25, Y+4	; 0x04
     ba0:	01 97       	sbiw	r24, 0x01	; 1
     ba2:	9c 83       	std	Y+4, r25	; 0x04
     ba4:	8b 83       	std	Y+3, r24	; 0x03
     ba6:	8b 81       	ldd	r24, Y+3	; 0x03
     ba8:	9c 81       	ldd	r25, Y+4	; 0x04
     baa:	26 e1       	ldi	r18, 0x16	; 22
     bac:	fc 01       	movw	r30, r24
     bae:	20 83       	st	Z, r18
     bb0:	8b 81       	ldd	r24, Y+3	; 0x03
     bb2:	9c 81       	ldd	r25, Y+4	; 0x04
     bb4:	01 97       	sbiw	r24, 0x01	; 1
     bb6:	9c 83       	std	Y+4, r25	; 0x04
     bb8:	8b 83       	std	Y+3, r24	; 0x03
     bba:	8b 81       	ldd	r24, Y+3	; 0x03
     bbc:	9c 81       	ldd	r25, Y+4	; 0x04
     bbe:	27 e1       	ldi	r18, 0x17	; 23
     bc0:	fc 01       	movw	r30, r24
     bc2:	20 83       	st	Z, r18
     bc4:	8b 81       	ldd	r24, Y+3	; 0x03
     bc6:	9c 81       	ldd	r25, Y+4	; 0x04
     bc8:	01 97       	sbiw	r24, 0x01	; 1
     bca:	9c 83       	std	Y+4, r25	; 0x04
     bcc:	8b 83       	std	Y+3, r24	; 0x03
     bce:	8b 81       	ldd	r24, Y+3	; 0x03
     bd0:	9c 81       	ldd	r25, Y+4	; 0x04
     bd2:	28 e1       	ldi	r18, 0x18	; 24
     bd4:	fc 01       	movw	r30, r24
     bd6:	20 83       	st	Z, r18
     bd8:	8b 81       	ldd	r24, Y+3	; 0x03
     bda:	9c 81       	ldd	r25, Y+4	; 0x04
     bdc:	01 97       	sbiw	r24, 0x01	; 1
     bde:	9c 83       	std	Y+4, r25	; 0x04
     be0:	8b 83       	std	Y+3, r24	; 0x03
     be2:	8b 81       	ldd	r24, Y+3	; 0x03
     be4:	9c 81       	ldd	r25, Y+4	; 0x04
     be6:	29 e1       	ldi	r18, 0x19	; 25
     be8:	fc 01       	movw	r30, r24
     bea:	20 83       	st	Z, r18
     bec:	8b 81       	ldd	r24, Y+3	; 0x03
     bee:	9c 81       	ldd	r25, Y+4	; 0x04
     bf0:	01 97       	sbiw	r24, 0x01	; 1
     bf2:	9c 83       	std	Y+4, r25	; 0x04
     bf4:	8b 83       	std	Y+3, r24	; 0x03
     bf6:	8b 81       	ldd	r24, Y+3	; 0x03
     bf8:	9c 81       	ldd	r25, Y+4	; 0x04
     bfa:	20 e2       	ldi	r18, 0x20	; 32
     bfc:	fc 01       	movw	r30, r24
     bfe:	20 83       	st	Z, r18
     c00:	8b 81       	ldd	r24, Y+3	; 0x03
     c02:	9c 81       	ldd	r25, Y+4	; 0x04
     c04:	01 97       	sbiw	r24, 0x01	; 1
     c06:	9c 83       	std	Y+4, r25	; 0x04
     c08:	8b 83       	std	Y+3, r24	; 0x03
     c0a:	8b 81       	ldd	r24, Y+3	; 0x03
     c0c:	9c 81       	ldd	r25, Y+4	; 0x04
     c0e:	21 e2       	ldi	r18, 0x21	; 33
     c10:	fc 01       	movw	r30, r24
     c12:	20 83       	st	Z, r18
     c14:	8b 81       	ldd	r24, Y+3	; 0x03
     c16:	9c 81       	ldd	r25, Y+4	; 0x04
     c18:	01 97       	sbiw	r24, 0x01	; 1
     c1a:	9c 83       	std	Y+4, r25	; 0x04
     c1c:	8b 83       	std	Y+3, r24	; 0x03
     c1e:	8b 81       	ldd	r24, Y+3	; 0x03
     c20:	9c 81       	ldd	r25, Y+4	; 0x04
     c22:	22 e2       	ldi	r18, 0x22	; 34
     c24:	fc 01       	movw	r30, r24
     c26:	20 83       	st	Z, r18
     c28:	8b 81       	ldd	r24, Y+3	; 0x03
     c2a:	9c 81       	ldd	r25, Y+4	; 0x04
     c2c:	01 97       	sbiw	r24, 0x01	; 1
     c2e:	9c 83       	std	Y+4, r25	; 0x04
     c30:	8b 83       	std	Y+3, r24	; 0x03
     c32:	8b 81       	ldd	r24, Y+3	; 0x03
     c34:	9c 81       	ldd	r25, Y+4	; 0x04
     c36:	23 e2       	ldi	r18, 0x23	; 35
     c38:	fc 01       	movw	r30, r24
     c3a:	20 83       	st	Z, r18
     c3c:	8b 81       	ldd	r24, Y+3	; 0x03
     c3e:	9c 81       	ldd	r25, Y+4	; 0x04
     c40:	01 97       	sbiw	r24, 0x01	; 1
     c42:	9c 83       	std	Y+4, r25	; 0x04
     c44:	8b 83       	std	Y+3, r24	; 0x03
     c46:	8f 81       	ldd	r24, Y+7	; 0x07
     c48:	98 85       	ldd	r25, Y+8	; 0x08
     c4a:	9a 83       	std	Y+2, r25	; 0x02
     c4c:	89 83       	std	Y+1, r24	; 0x01
     c4e:	29 81       	ldd	r18, Y+1	; 0x01
     c50:	8b 81       	ldd	r24, Y+3	; 0x03
     c52:	9c 81       	ldd	r25, Y+4	; 0x04
     c54:	fc 01       	movw	r30, r24
     c56:	20 83       	st	Z, r18
     c58:	8b 81       	ldd	r24, Y+3	; 0x03
     c5a:	9c 81       	ldd	r25, Y+4	; 0x04
     c5c:	01 97       	sbiw	r24, 0x01	; 1
     c5e:	9c 83       	std	Y+4, r25	; 0x04
     c60:	8b 83       	std	Y+3, r24	; 0x03
     c62:	89 81       	ldd	r24, Y+1	; 0x01
     c64:	9a 81       	ldd	r25, Y+2	; 0x02
     c66:	89 2f       	mov	r24, r25
     c68:	99 27       	eor	r25, r25
     c6a:	9a 83       	std	Y+2, r25	; 0x02
     c6c:	89 83       	std	Y+1, r24	; 0x01
     c6e:	29 81       	ldd	r18, Y+1	; 0x01
     c70:	8b 81       	ldd	r24, Y+3	; 0x03
     c72:	9c 81       	ldd	r25, Y+4	; 0x04
     c74:	fc 01       	movw	r30, r24
     c76:	20 83       	st	Z, r18
     c78:	8b 81       	ldd	r24, Y+3	; 0x03
     c7a:	9c 81       	ldd	r25, Y+4	; 0x04
     c7c:	01 97       	sbiw	r24, 0x01	; 1
     c7e:	9c 83       	std	Y+4, r25	; 0x04
     c80:	8b 83       	std	Y+3, r24	; 0x03
     c82:	8b 81       	ldd	r24, Y+3	; 0x03
     c84:	9c 81       	ldd	r25, Y+4	; 0x04
     c86:	26 e2       	ldi	r18, 0x26	; 38
     c88:	fc 01       	movw	r30, r24
     c8a:	20 83       	st	Z, r18
     c8c:	8b 81       	ldd	r24, Y+3	; 0x03
     c8e:	9c 81       	ldd	r25, Y+4	; 0x04
     c90:	01 97       	sbiw	r24, 0x01	; 1
     c92:	9c 83       	std	Y+4, r25	; 0x04
     c94:	8b 83       	std	Y+3, r24	; 0x03
     c96:	8b 81       	ldd	r24, Y+3	; 0x03
     c98:	9c 81       	ldd	r25, Y+4	; 0x04
     c9a:	27 e2       	ldi	r18, 0x27	; 39
     c9c:	fc 01       	movw	r30, r24
     c9e:	20 83       	st	Z, r18
     ca0:	8b 81       	ldd	r24, Y+3	; 0x03
     ca2:	9c 81       	ldd	r25, Y+4	; 0x04
     ca4:	01 97       	sbiw	r24, 0x01	; 1
     ca6:	9c 83       	std	Y+4, r25	; 0x04
     ca8:	8b 83       	std	Y+3, r24	; 0x03
     caa:	8b 81       	ldd	r24, Y+3	; 0x03
     cac:	9c 81       	ldd	r25, Y+4	; 0x04
     cae:	28 e2       	ldi	r18, 0x28	; 40
     cb0:	fc 01       	movw	r30, r24
     cb2:	20 83       	st	Z, r18
     cb4:	8b 81       	ldd	r24, Y+3	; 0x03
     cb6:	9c 81       	ldd	r25, Y+4	; 0x04
     cb8:	01 97       	sbiw	r24, 0x01	; 1
     cba:	9c 83       	std	Y+4, r25	; 0x04
     cbc:	8b 83       	std	Y+3, r24	; 0x03
     cbe:	8b 81       	ldd	r24, Y+3	; 0x03
     cc0:	9c 81       	ldd	r25, Y+4	; 0x04
     cc2:	29 e2       	ldi	r18, 0x29	; 41
     cc4:	fc 01       	movw	r30, r24
     cc6:	20 83       	st	Z, r18
     cc8:	8b 81       	ldd	r24, Y+3	; 0x03
     cca:	9c 81       	ldd	r25, Y+4	; 0x04
     ccc:	01 97       	sbiw	r24, 0x01	; 1
     cce:	9c 83       	std	Y+4, r25	; 0x04
     cd0:	8b 83       	std	Y+3, r24	; 0x03
     cd2:	8b 81       	ldd	r24, Y+3	; 0x03
     cd4:	9c 81       	ldd	r25, Y+4	; 0x04
     cd6:	20 e3       	ldi	r18, 0x30	; 48
     cd8:	fc 01       	movw	r30, r24
     cda:	20 83       	st	Z, r18
     cdc:	8b 81       	ldd	r24, Y+3	; 0x03
     cde:	9c 81       	ldd	r25, Y+4	; 0x04
     ce0:	01 97       	sbiw	r24, 0x01	; 1
     ce2:	9c 83       	std	Y+4, r25	; 0x04
     ce4:	8b 83       	std	Y+3, r24	; 0x03
     ce6:	8b 81       	ldd	r24, Y+3	; 0x03
     ce8:	9c 81       	ldd	r25, Y+4	; 0x04
     cea:	21 e3       	ldi	r18, 0x31	; 49
     cec:	fc 01       	movw	r30, r24
     cee:	20 83       	st	Z, r18
     cf0:	8b 81       	ldd	r24, Y+3	; 0x03
     cf2:	9c 81       	ldd	r25, Y+4	; 0x04
     cf4:	01 97       	sbiw	r24, 0x01	; 1
     cf6:	9c 83       	std	Y+4, r25	; 0x04
     cf8:	8b 83       	std	Y+3, r24	; 0x03
     cfa:	8b 81       	ldd	r24, Y+3	; 0x03
     cfc:	9c 81       	ldd	r25, Y+4	; 0x04
     cfe:	28 96       	adiw	r28, 0x08	; 8
     d00:	0f b6       	in	r0, 0x3f	; 63
     d02:	f8 94       	cli
     d04:	de bf       	out	0x3e, r29	; 62
     d06:	0f be       	out	0x3f, r0	; 63
     d08:	cd bf       	out	0x3d, r28	; 61
     d0a:	df 91       	pop	r29
     d0c:	cf 91       	pop	r28
     d0e:	08 95       	ret

00000d10 <xPortStartScheduler>:
     d10:	cf 93       	push	r28
     d12:	df 93       	push	r29
     d14:	cd b7       	in	r28, 0x3d	; 61
     d16:	de b7       	in	r29, 0x3e	; 62
     d18:	0e 94 75 07 	call	0xeea	; 0xeea <prvSetupTimerInterrupt>
     d1c:	a0 91 df 06 	lds	r26, 0x06DF	; 0x8006df <pxCurrentTCB>
     d20:	b0 91 e0 06 	lds	r27, 0x06E0	; 0x8006e0 <pxCurrentTCB+0x1>
     d24:	cd 91       	ld	r28, X+
     d26:	cd bf       	out	0x3d, r28	; 61
     d28:	dd 91       	ld	r29, X+
     d2a:	de bf       	out	0x3e, r29	; 62
     d2c:	ff 91       	pop	r31
     d2e:	ef 91       	pop	r30
     d30:	df 91       	pop	r29
     d32:	cf 91       	pop	r28
     d34:	bf 91       	pop	r27
     d36:	af 91       	pop	r26
     d38:	9f 91       	pop	r25
     d3a:	8f 91       	pop	r24
     d3c:	7f 91       	pop	r23
     d3e:	6f 91       	pop	r22
     d40:	5f 91       	pop	r21
     d42:	4f 91       	pop	r20
     d44:	3f 91       	pop	r19
     d46:	2f 91       	pop	r18
     d48:	1f 91       	pop	r17
     d4a:	0f 91       	pop	r16
     d4c:	ff 90       	pop	r15
     d4e:	ef 90       	pop	r14
     d50:	df 90       	pop	r13
     d52:	cf 90       	pop	r12
     d54:	bf 90       	pop	r11
     d56:	af 90       	pop	r10
     d58:	9f 90       	pop	r9
     d5a:	8f 90       	pop	r8
     d5c:	7f 90       	pop	r7
     d5e:	6f 90       	pop	r6
     d60:	5f 90       	pop	r5
     d62:	4f 90       	pop	r4
     d64:	3f 90       	pop	r3
     d66:	2f 90       	pop	r2
     d68:	1f 90       	pop	r1
     d6a:	0f 90       	pop	r0
     d6c:	0f be       	out	0x3f, r0	; 63
     d6e:	0f 90       	pop	r0
     d70:	08 95       	ret
     d72:	81 e0       	ldi	r24, 0x01	; 1
     d74:	df 91       	pop	r29
     d76:	cf 91       	pop	r28
     d78:	08 95       	ret

00000d7a <vPortYield>:
     d7a:	0f 92       	push	r0
     d7c:	0f b6       	in	r0, 0x3f	; 63
     d7e:	f8 94       	cli
     d80:	0f 92       	push	r0
     d82:	1f 92       	push	r1
     d84:	11 24       	eor	r1, r1
     d86:	2f 92       	push	r2
     d88:	3f 92       	push	r3
     d8a:	4f 92       	push	r4
     d8c:	5f 92       	push	r5
     d8e:	6f 92       	push	r6
     d90:	7f 92       	push	r7
     d92:	8f 92       	push	r8
     d94:	9f 92       	push	r9
     d96:	af 92       	push	r10
     d98:	bf 92       	push	r11
     d9a:	cf 92       	push	r12
     d9c:	df 92       	push	r13
     d9e:	ef 92       	push	r14
     da0:	ff 92       	push	r15
     da2:	0f 93       	push	r16
     da4:	1f 93       	push	r17
     da6:	2f 93       	push	r18
     da8:	3f 93       	push	r19
     daa:	4f 93       	push	r20
     dac:	5f 93       	push	r21
     dae:	6f 93       	push	r22
     db0:	7f 93       	push	r23
     db2:	8f 93       	push	r24
     db4:	9f 93       	push	r25
     db6:	af 93       	push	r26
     db8:	bf 93       	push	r27
     dba:	cf 93       	push	r28
     dbc:	df 93       	push	r29
     dbe:	ef 93       	push	r30
     dc0:	ff 93       	push	r31
     dc2:	a0 91 df 06 	lds	r26, 0x06DF	; 0x8006df <pxCurrentTCB>
     dc6:	b0 91 e0 06 	lds	r27, 0x06E0	; 0x8006e0 <pxCurrentTCB+0x1>
     dca:	0d b6       	in	r0, 0x3d	; 61
     dcc:	0d 92       	st	X+, r0
     dce:	0e b6       	in	r0, 0x3e	; 62
     dd0:	0d 92       	st	X+, r0
     dd2:	0e 94 f7 0b 	call	0x17ee	; 0x17ee <vTaskSwitchContext>
     dd6:	a0 91 df 06 	lds	r26, 0x06DF	; 0x8006df <pxCurrentTCB>
     dda:	b0 91 e0 06 	lds	r27, 0x06E0	; 0x8006e0 <pxCurrentTCB+0x1>
     dde:	cd 91       	ld	r28, X+
     de0:	cd bf       	out	0x3d, r28	; 61
     de2:	dd 91       	ld	r29, X+
     de4:	de bf       	out	0x3e, r29	; 62
     de6:	ff 91       	pop	r31
     de8:	ef 91       	pop	r30
     dea:	df 91       	pop	r29
     dec:	cf 91       	pop	r28
     dee:	bf 91       	pop	r27
     df0:	af 91       	pop	r26
     df2:	9f 91       	pop	r25
     df4:	8f 91       	pop	r24
     df6:	7f 91       	pop	r23
     df8:	6f 91       	pop	r22
     dfa:	5f 91       	pop	r21
     dfc:	4f 91       	pop	r20
     dfe:	3f 91       	pop	r19
     e00:	2f 91       	pop	r18
     e02:	1f 91       	pop	r17
     e04:	0f 91       	pop	r16
     e06:	ff 90       	pop	r15
     e08:	ef 90       	pop	r14
     e0a:	df 90       	pop	r13
     e0c:	cf 90       	pop	r12
     e0e:	bf 90       	pop	r11
     e10:	af 90       	pop	r10
     e12:	9f 90       	pop	r9
     e14:	8f 90       	pop	r8
     e16:	7f 90       	pop	r7
     e18:	6f 90       	pop	r6
     e1a:	5f 90       	pop	r5
     e1c:	4f 90       	pop	r4
     e1e:	3f 90       	pop	r3
     e20:	2f 90       	pop	r2
     e22:	1f 90       	pop	r1
     e24:	0f 90       	pop	r0
     e26:	0f be       	out	0x3f, r0	; 63
     e28:	0f 90       	pop	r0
     e2a:	08 95       	ret
	...

00000e2e <vPortYieldFromTick>:
     e2e:	0f 92       	push	r0
     e30:	0f b6       	in	r0, 0x3f	; 63
     e32:	f8 94       	cli
     e34:	0f 92       	push	r0
     e36:	1f 92       	push	r1
     e38:	11 24       	eor	r1, r1
     e3a:	2f 92       	push	r2
     e3c:	3f 92       	push	r3
     e3e:	4f 92       	push	r4
     e40:	5f 92       	push	r5
     e42:	6f 92       	push	r6
     e44:	7f 92       	push	r7
     e46:	8f 92       	push	r8
     e48:	9f 92       	push	r9
     e4a:	af 92       	push	r10
     e4c:	bf 92       	push	r11
     e4e:	cf 92       	push	r12
     e50:	df 92       	push	r13
     e52:	ef 92       	push	r14
     e54:	ff 92       	push	r15
     e56:	0f 93       	push	r16
     e58:	1f 93       	push	r17
     e5a:	2f 93       	push	r18
     e5c:	3f 93       	push	r19
     e5e:	4f 93       	push	r20
     e60:	5f 93       	push	r21
     e62:	6f 93       	push	r22
     e64:	7f 93       	push	r23
     e66:	8f 93       	push	r24
     e68:	9f 93       	push	r25
     e6a:	af 93       	push	r26
     e6c:	bf 93       	push	r27
     e6e:	cf 93       	push	r28
     e70:	df 93       	push	r29
     e72:	ef 93       	push	r30
     e74:	ff 93       	push	r31
     e76:	a0 91 df 06 	lds	r26, 0x06DF	; 0x8006df <pxCurrentTCB>
     e7a:	b0 91 e0 06 	lds	r27, 0x06E0	; 0x8006e0 <pxCurrentTCB+0x1>
     e7e:	0d b6       	in	r0, 0x3d	; 61
     e80:	0d 92       	st	X+, r0
     e82:	0e b6       	in	r0, 0x3e	; 62
     e84:	0d 92       	st	X+, r0
     e86:	0e 94 0a 0b 	call	0x1614	; 0x1614 <xTaskIncrementTick>
     e8a:	88 23       	and	r24, r24
     e8c:	11 f0       	breq	.+4      	; 0xe92 <vPortYieldFromTick+0x64>
     e8e:	0e 94 f7 0b 	call	0x17ee	; 0x17ee <vTaskSwitchContext>
     e92:	a0 91 df 06 	lds	r26, 0x06DF	; 0x8006df <pxCurrentTCB>
     e96:	b0 91 e0 06 	lds	r27, 0x06E0	; 0x8006e0 <pxCurrentTCB+0x1>
     e9a:	cd 91       	ld	r28, X+
     e9c:	cd bf       	out	0x3d, r28	; 61
     e9e:	dd 91       	ld	r29, X+
     ea0:	de bf       	out	0x3e, r29	; 62
     ea2:	ff 91       	pop	r31
     ea4:	ef 91       	pop	r30
     ea6:	df 91       	pop	r29
     ea8:	cf 91       	pop	r28
     eaa:	bf 91       	pop	r27
     eac:	af 91       	pop	r26
     eae:	9f 91       	pop	r25
     eb0:	8f 91       	pop	r24
     eb2:	7f 91       	pop	r23
     eb4:	6f 91       	pop	r22
     eb6:	5f 91       	pop	r21
     eb8:	4f 91       	pop	r20
     eba:	3f 91       	pop	r19
     ebc:	2f 91       	pop	r18
     ebe:	1f 91       	pop	r17
     ec0:	0f 91       	pop	r16
     ec2:	ff 90       	pop	r15
     ec4:	ef 90       	pop	r14
     ec6:	df 90       	pop	r13
     ec8:	cf 90       	pop	r12
     eca:	bf 90       	pop	r11
     ecc:	af 90       	pop	r10
     ece:	9f 90       	pop	r9
     ed0:	8f 90       	pop	r8
     ed2:	7f 90       	pop	r7
     ed4:	6f 90       	pop	r6
     ed6:	5f 90       	pop	r5
     ed8:	4f 90       	pop	r4
     eda:	3f 90       	pop	r3
     edc:	2f 90       	pop	r2
     ede:	1f 90       	pop	r1
     ee0:	0f 90       	pop	r0
     ee2:	0f be       	out	0x3f, r0	; 63
     ee4:	0f 90       	pop	r0
     ee6:	08 95       	ret
	...

00000eea <prvSetupTimerInterrupt>:
     eea:	cf 93       	push	r28
     eec:	df 93       	push	r29
     eee:	00 d0       	rcall	.+0      	; 0xef0 <prvSetupTimerInterrupt+0x6>
     ef0:	00 d0       	rcall	.+0      	; 0xef2 <prvSetupTimerInterrupt+0x8>
     ef2:	00 d0       	rcall	.+0      	; 0xef4 <prvSetupTimerInterrupt+0xa>
     ef4:	cd b7       	in	r28, 0x3d	; 61
     ef6:	de b7       	in	r29, 0x3e	; 62
     ef8:	80 e4       	ldi	r24, 0x40	; 64
     efa:	9f e1       	ldi	r25, 0x1F	; 31
     efc:	a0 e0       	ldi	r26, 0x00	; 0
     efe:	b0 e0       	ldi	r27, 0x00	; 0
     f00:	89 83       	std	Y+1, r24	; 0x01
     f02:	9a 83       	std	Y+2, r25	; 0x02
     f04:	ab 83       	std	Y+3, r26	; 0x03
     f06:	bc 83       	std	Y+4, r27	; 0x04
     f08:	89 81       	ldd	r24, Y+1	; 0x01
     f0a:	9a 81       	ldd	r25, Y+2	; 0x02
     f0c:	ab 81       	ldd	r26, Y+3	; 0x03
     f0e:	bc 81       	ldd	r27, Y+4	; 0x04
     f10:	68 94       	set
     f12:	15 f8       	bld	r1, 5
     f14:	b6 95       	lsr	r27
     f16:	a7 95       	ror	r26
     f18:	97 95       	ror	r25
     f1a:	87 95       	ror	r24
     f1c:	16 94       	lsr	r1
     f1e:	d1 f7       	brne	.-12     	; 0xf14 <prvSetupTimerInterrupt+0x2a>
     f20:	89 83       	std	Y+1, r24	; 0x01
     f22:	9a 83       	std	Y+2, r25	; 0x02
     f24:	ab 83       	std	Y+3, r26	; 0x03
     f26:	bc 83       	std	Y+4, r27	; 0x04
     f28:	89 81       	ldd	r24, Y+1	; 0x01
     f2a:	9a 81       	ldd	r25, Y+2	; 0x02
     f2c:	ab 81       	ldd	r26, Y+3	; 0x03
     f2e:	bc 81       	ldd	r27, Y+4	; 0x04
     f30:	01 97       	sbiw	r24, 0x01	; 1
     f32:	a1 09       	sbc	r26, r1
     f34:	b1 09       	sbc	r27, r1
     f36:	89 83       	std	Y+1, r24	; 0x01
     f38:	9a 83       	std	Y+2, r25	; 0x02
     f3a:	ab 83       	std	Y+3, r26	; 0x03
     f3c:	bc 83       	std	Y+4, r27	; 0x04
     f3e:	89 81       	ldd	r24, Y+1	; 0x01
     f40:	8d 83       	std	Y+5, r24	; 0x05
     f42:	89 81       	ldd	r24, Y+1	; 0x01
     f44:	9a 81       	ldd	r25, Y+2	; 0x02
     f46:	ab 81       	ldd	r26, Y+3	; 0x03
     f48:	bc 81       	ldd	r27, Y+4	; 0x04
     f4a:	89 2f       	mov	r24, r25
     f4c:	9a 2f       	mov	r25, r26
     f4e:	ab 2f       	mov	r26, r27
     f50:	bb 27       	eor	r27, r27
     f52:	89 83       	std	Y+1, r24	; 0x01
     f54:	9a 83       	std	Y+2, r25	; 0x02
     f56:	ab 83       	std	Y+3, r26	; 0x03
     f58:	bc 83       	std	Y+4, r27	; 0x04
     f5a:	89 81       	ldd	r24, Y+1	; 0x01
     f5c:	8e 83       	std	Y+6, r24	; 0x06
     f5e:	8b e4       	ldi	r24, 0x4B	; 75
     f60:	90 e0       	ldi	r25, 0x00	; 0
     f62:	2e 81       	ldd	r18, Y+6	; 0x06
     f64:	fc 01       	movw	r30, r24
     f66:	20 83       	st	Z, r18
     f68:	8a e4       	ldi	r24, 0x4A	; 74
     f6a:	90 e0       	ldi	r25, 0x00	; 0
     f6c:	2d 81       	ldd	r18, Y+5	; 0x05
     f6e:	fc 01       	movw	r30, r24
     f70:	20 83       	st	Z, r18
     f72:	8b e0       	ldi	r24, 0x0B	; 11
     f74:	8d 83       	std	Y+5, r24	; 0x05
     f76:	8e e4       	ldi	r24, 0x4E	; 78
     f78:	90 e0       	ldi	r25, 0x00	; 0
     f7a:	2d 81       	ldd	r18, Y+5	; 0x05
     f7c:	fc 01       	movw	r30, r24
     f7e:	20 83       	st	Z, r18
     f80:	89 e5       	ldi	r24, 0x59	; 89
     f82:	90 e0       	ldi	r25, 0x00	; 0
     f84:	fc 01       	movw	r30, r24
     f86:	80 81       	ld	r24, Z
     f88:	8d 83       	std	Y+5, r24	; 0x05
     f8a:	8d 81       	ldd	r24, Y+5	; 0x05
     f8c:	80 61       	ori	r24, 0x10	; 16
     f8e:	8d 83       	std	Y+5, r24	; 0x05
     f90:	89 e5       	ldi	r24, 0x59	; 89
     f92:	90 e0       	ldi	r25, 0x00	; 0
     f94:	2d 81       	ldd	r18, Y+5	; 0x05
     f96:	fc 01       	movw	r30, r24
     f98:	20 83       	st	Z, r18
     f9a:	00 00       	nop
     f9c:	26 96       	adiw	r28, 0x06	; 6
     f9e:	0f b6       	in	r0, 0x3f	; 63
     fa0:	f8 94       	cli
     fa2:	de bf       	out	0x3e, r29	; 62
     fa4:	0f be       	out	0x3f, r0	; 63
     fa6:	cd bf       	out	0x3d, r28	; 61
     fa8:	df 91       	pop	r29
     faa:	cf 91       	pop	r28
     fac:	08 95       	ret

00000fae <__vector_7>:
     fae:	0e 94 17 07 	call	0xe2e	; 0xe2e <vPortYieldFromTick>
     fb2:	18 95       	reti
	...

00000fb6 <xTaskCreate>:
     fb6:	8f 92       	push	r8
     fb8:	9f 92       	push	r9
     fba:	af 92       	push	r10
     fbc:	bf 92       	push	r11
     fbe:	cf 92       	push	r12
     fc0:	df 92       	push	r13
     fc2:	ef 92       	push	r14
     fc4:	ff 92       	push	r15
     fc6:	0f 93       	push	r16
     fc8:	1f 93       	push	r17
     fca:	cf 93       	push	r28
     fcc:	df 93       	push	r29
     fce:	cd b7       	in	r28, 0x3d	; 61
     fd0:	de b7       	in	r29, 0x3e	; 62
     fd2:	60 97       	sbiw	r28, 0x10	; 16
     fd4:	0f b6       	in	r0, 0x3f	; 63
     fd6:	f8 94       	cli
     fd8:	de bf       	out	0x3e, r29	; 62
     fda:	0f be       	out	0x3f, r0	; 63
     fdc:	cd bf       	out	0x3d, r28	; 61
     fde:	9f 83       	std	Y+7, r25	; 0x07
     fe0:	8e 83       	std	Y+6, r24	; 0x06
     fe2:	79 87       	std	Y+9, r23	; 0x09
     fe4:	68 87       	std	Y+8, r22	; 0x08
     fe6:	5b 87       	std	Y+11, r21	; 0x0b
     fe8:	4a 87       	std	Y+10, r20	; 0x0a
     fea:	3d 87       	std	Y+13, r19	; 0x0d
     fec:	2c 87       	std	Y+12, r18	; 0x0c
     fee:	0e 87       	std	Y+14, r16	; 0x0e
     ff0:	f8 8a       	std	Y+16, r15	; 0x10
     ff2:	ef 86       	std	Y+15, r14	; 0x0f
     ff4:	8a 85       	ldd	r24, Y+10	; 0x0a
     ff6:	9b 85       	ldd	r25, Y+11	; 0x0b
     ff8:	0e 94 17 03 	call	0x62e	; 0x62e <pvPortMalloc>
     ffc:	9d 83       	std	Y+5, r25	; 0x05
     ffe:	8c 83       	std	Y+4, r24	; 0x04
    1000:	8c 81       	ldd	r24, Y+4	; 0x04
    1002:	9d 81       	ldd	r25, Y+5	; 0x05
    1004:	89 2b       	or	r24, r25
    1006:	b9 f0       	breq	.+46     	; 0x1036 <xTaskCreate+0x80>
    1008:	86 e2       	ldi	r24, 0x26	; 38
    100a:	90 e0       	ldi	r25, 0x00	; 0
    100c:	0e 94 17 03 	call	0x62e	; 0x62e <pvPortMalloc>
    1010:	9a 83       	std	Y+2, r25	; 0x02
    1012:	89 83       	std	Y+1, r24	; 0x01
    1014:	89 81       	ldd	r24, Y+1	; 0x01
    1016:	9a 81       	ldd	r25, Y+2	; 0x02
    1018:	89 2b       	or	r24, r25
    101a:	41 f0       	breq	.+16     	; 0x102c <xTaskCreate+0x76>
    101c:	89 81       	ldd	r24, Y+1	; 0x01
    101e:	9a 81       	ldd	r25, Y+2	; 0x02
    1020:	2c 81       	ldd	r18, Y+4	; 0x04
    1022:	3d 81       	ldd	r19, Y+5	; 0x05
    1024:	fc 01       	movw	r30, r24
    1026:	30 8f       	std	Z+24, r19	; 0x18
    1028:	27 8b       	std	Z+23, r18	; 0x17
    102a:	07 c0       	rjmp	.+14     	; 0x103a <xTaskCreate+0x84>
    102c:	8c 81       	ldd	r24, Y+4	; 0x04
    102e:	9d 81       	ldd	r25, Y+5	; 0x05
    1030:	0e 94 6c 03 	call	0x6d8	; 0x6d8 <vPortFree>
    1034:	02 c0       	rjmp	.+4      	; 0x103a <xTaskCreate+0x84>
    1036:	1a 82       	std	Y+2, r1	; 0x02
    1038:	19 82       	std	Y+1, r1	; 0x01
    103a:	89 81       	ldd	r24, Y+1	; 0x01
    103c:	9a 81       	ldd	r25, Y+2	; 0x02
    103e:	89 2b       	or	r24, r25
    1040:	09 f1       	breq	.+66     	; 0x1084 <xTaskCreate+0xce>
    1042:	8a 85       	ldd	r24, Y+10	; 0x0a
    1044:	9b 85       	ldd	r25, Y+11	; 0x0b
    1046:	cc 01       	movw	r24, r24
    1048:	a0 e0       	ldi	r26, 0x00	; 0
    104a:	b0 e0       	ldi	r27, 0x00	; 0
    104c:	09 81       	ldd	r16, Y+1	; 0x01
    104e:	1a 81       	ldd	r17, Y+2	; 0x02
    1050:	4f 85       	ldd	r20, Y+15	; 0x0f
    1052:	58 89       	ldd	r21, Y+16	; 0x10
    1054:	2c 85       	ldd	r18, Y+12	; 0x0c
    1056:	3d 85       	ldd	r19, Y+13	; 0x0d
    1058:	68 85       	ldd	r22, Y+8	; 0x08
    105a:	79 85       	ldd	r23, Y+9	; 0x09
    105c:	ee 81       	ldd	r30, Y+6	; 0x06
    105e:	ff 81       	ldd	r31, Y+7	; 0x07
    1060:	81 2c       	mov	r8, r1
    1062:	91 2c       	mov	r9, r1
    1064:	58 01       	movw	r10, r16
    1066:	6a 01       	movw	r12, r20
    1068:	ee 84       	ldd	r14, Y+14	; 0x0e
    106a:	89 01       	movw	r16, r18
    106c:	9c 01       	movw	r18, r24
    106e:	ad 01       	movw	r20, r26
    1070:	cf 01       	movw	r24, r30
    1072:	0e 94 58 08 	call	0x10b0	; 0x10b0 <prvInitialiseNewTask>
    1076:	89 81       	ldd	r24, Y+1	; 0x01
    1078:	9a 81       	ldd	r25, Y+2	; 0x02
    107a:	0e 94 23 09 	call	0x1246	; 0x1246 <prvAddNewTaskToReadyList>
    107e:	81 e0       	ldi	r24, 0x01	; 1
    1080:	8b 83       	std	Y+3, r24	; 0x03
    1082:	02 c0       	rjmp	.+4      	; 0x1088 <xTaskCreate+0xd2>
    1084:	8f ef       	ldi	r24, 0xFF	; 255
    1086:	8b 83       	std	Y+3, r24	; 0x03
    1088:	8b 81       	ldd	r24, Y+3	; 0x03
    108a:	60 96       	adiw	r28, 0x10	; 16
    108c:	0f b6       	in	r0, 0x3f	; 63
    108e:	f8 94       	cli
    1090:	de bf       	out	0x3e, r29	; 62
    1092:	0f be       	out	0x3f, r0	; 63
    1094:	cd bf       	out	0x3d, r28	; 61
    1096:	df 91       	pop	r29
    1098:	cf 91       	pop	r28
    109a:	1f 91       	pop	r17
    109c:	0f 91       	pop	r16
    109e:	ff 90       	pop	r15
    10a0:	ef 90       	pop	r14
    10a2:	df 90       	pop	r13
    10a4:	cf 90       	pop	r12
    10a6:	bf 90       	pop	r11
    10a8:	af 90       	pop	r10
    10aa:	9f 90       	pop	r9
    10ac:	8f 90       	pop	r8
    10ae:	08 95       	ret

000010b0 <prvInitialiseNewTask>:
    10b0:	8f 92       	push	r8
    10b2:	9f 92       	push	r9
    10b4:	af 92       	push	r10
    10b6:	bf 92       	push	r11
    10b8:	cf 92       	push	r12
    10ba:	df 92       	push	r13
    10bc:	ef 92       	push	r14
    10be:	0f 93       	push	r16
    10c0:	1f 93       	push	r17
    10c2:	cf 93       	push	r28
    10c4:	df 93       	push	r29
    10c6:	cd b7       	in	r28, 0x3d	; 61
    10c8:	de b7       	in	r29, 0x3e	; 62
    10ca:	64 97       	sbiw	r28, 0x14	; 20
    10cc:	0f b6       	in	r0, 0x3f	; 63
    10ce:	f8 94       	cli
    10d0:	de bf       	out	0x3e, r29	; 62
    10d2:	0f be       	out	0x3f, r0	; 63
    10d4:	cd bf       	out	0x3d, r28	; 61
    10d6:	9d 83       	std	Y+5, r25	; 0x05
    10d8:	8c 83       	std	Y+4, r24	; 0x04
    10da:	7f 83       	std	Y+7, r23	; 0x07
    10dc:	6e 83       	std	Y+6, r22	; 0x06
    10de:	28 87       	std	Y+8, r18	; 0x08
    10e0:	39 87       	std	Y+9, r19	; 0x09
    10e2:	4a 87       	std	Y+10, r20	; 0x0a
    10e4:	5b 87       	std	Y+11, r21	; 0x0b
    10e6:	1d 87       	std	Y+13, r17	; 0x0d
    10e8:	0c 87       	std	Y+12, r16	; 0x0c
    10ea:	ee 86       	std	Y+14, r14	; 0x0e
    10ec:	d8 8a       	std	Y+16, r13	; 0x10
    10ee:	cf 86       	std	Y+15, r12	; 0x0f
    10f0:	ba 8a       	std	Y+18, r11	; 0x12
    10f2:	a9 8a       	std	Y+17, r10	; 0x11
    10f4:	9c 8a       	std	Y+20, r9	; 0x14
    10f6:	8b 8a       	std	Y+19, r8	; 0x13
    10f8:	89 89       	ldd	r24, Y+17	; 0x11
    10fa:	9a 89       	ldd	r25, Y+18	; 0x12
    10fc:	fc 01       	movw	r30, r24
    10fe:	27 89       	ldd	r18, Z+23	; 0x17
    1100:	30 8d       	ldd	r19, Z+24	; 0x18
    1102:	88 85       	ldd	r24, Y+8	; 0x08
    1104:	99 85       	ldd	r25, Y+9	; 0x09
    1106:	01 97       	sbiw	r24, 0x01	; 1
    1108:	82 0f       	add	r24, r18
    110a:	93 1f       	adc	r25, r19
    110c:	9b 83       	std	Y+3, r25	; 0x03
    110e:	8a 83       	std	Y+2, r24	; 0x02
    1110:	8e 81       	ldd	r24, Y+6	; 0x06
    1112:	9f 81       	ldd	r25, Y+7	; 0x07
    1114:	89 2b       	or	r24, r25
    1116:	69 f1       	breq	.+90     	; 0x1172 <prvInitialiseNewTask+0xc2>
    1118:	19 82       	std	Y+1, r1	; 0x01
    111a:	21 c0       	rjmp	.+66     	; 0x115e <prvInitialiseNewTask+0xae>
    111c:	89 81       	ldd	r24, Y+1	; 0x01
    111e:	88 2f       	mov	r24, r24
    1120:	90 e0       	ldi	r25, 0x00	; 0
    1122:	29 81       	ldd	r18, Y+1	; 0x01
    1124:	22 2f       	mov	r18, r18
    1126:	30 e0       	ldi	r19, 0x00	; 0
    1128:	4e 81       	ldd	r20, Y+6	; 0x06
    112a:	5f 81       	ldd	r21, Y+7	; 0x07
    112c:	24 0f       	add	r18, r20
    112e:	35 1f       	adc	r19, r21
    1130:	f9 01       	movw	r30, r18
    1132:	40 81       	ld	r20, Z
    1134:	29 89       	ldd	r18, Y+17	; 0x11
    1136:	3a 89       	ldd	r19, Y+18	; 0x12
    1138:	82 0f       	add	r24, r18
    113a:	93 1f       	adc	r25, r19
    113c:	49 96       	adiw	r24, 0x19	; 25
    113e:	fc 01       	movw	r30, r24
    1140:	40 83       	st	Z, r20
    1142:	89 81       	ldd	r24, Y+1	; 0x01
    1144:	88 2f       	mov	r24, r24
    1146:	90 e0       	ldi	r25, 0x00	; 0
    1148:	2e 81       	ldd	r18, Y+6	; 0x06
    114a:	3f 81       	ldd	r19, Y+7	; 0x07
    114c:	82 0f       	add	r24, r18
    114e:	93 1f       	adc	r25, r19
    1150:	fc 01       	movw	r30, r24
    1152:	80 81       	ld	r24, Z
    1154:	88 23       	and	r24, r24
    1156:	39 f0       	breq	.+14     	; 0x1166 <prvInitialiseNewTask+0xb6>
    1158:	89 81       	ldd	r24, Y+1	; 0x01
    115a:	8f 5f       	subi	r24, 0xFF	; 255
    115c:	89 83       	std	Y+1, r24	; 0x01
    115e:	89 81       	ldd	r24, Y+1	; 0x01
    1160:	88 30       	cpi	r24, 0x08	; 8
    1162:	e0 f2       	brcs	.-72     	; 0x111c <prvInitialiseNewTask+0x6c>
    1164:	01 c0       	rjmp	.+2      	; 0x1168 <prvInitialiseNewTask+0xb8>
    1166:	00 00       	nop
    1168:	89 89       	ldd	r24, Y+17	; 0x11
    116a:	9a 89       	ldd	r25, Y+18	; 0x12
    116c:	fc 01       	movw	r30, r24
    116e:	10 a2       	std	Z+32, r1	; 0x20
    1170:	04 c0       	rjmp	.+8      	; 0x117a <prvInitialiseNewTask+0xca>
    1172:	89 89       	ldd	r24, Y+17	; 0x11
    1174:	9a 89       	ldd	r25, Y+18	; 0x12
    1176:	fc 01       	movw	r30, r24
    1178:	11 8e       	std	Z+25, r1	; 0x19
    117a:	8e 85       	ldd	r24, Y+14	; 0x0e
    117c:	84 30       	cpi	r24, 0x04	; 4
    117e:	10 f0       	brcs	.+4      	; 0x1184 <prvInitialiseNewTask+0xd4>
    1180:	83 e0       	ldi	r24, 0x03	; 3
    1182:	8e 87       	std	Y+14, r24	; 0x0e
    1184:	89 89       	ldd	r24, Y+17	; 0x11
    1186:	9a 89       	ldd	r25, Y+18	; 0x12
    1188:	2e 85       	ldd	r18, Y+14	; 0x0e
    118a:	fc 01       	movw	r30, r24
    118c:	26 8b       	std	Z+22, r18	; 0x16
    118e:	89 89       	ldd	r24, Y+17	; 0x11
    1190:	9a 89       	ldd	r25, Y+18	; 0x12
    1192:	02 96       	adiw	r24, 0x02	; 2
    1194:	0e 94 af 03 	call	0x75e	; 0x75e <vListInitialiseItem>
    1198:	89 89       	ldd	r24, Y+17	; 0x11
    119a:	9a 89       	ldd	r25, Y+18	; 0x12
    119c:	0c 96       	adiw	r24, 0x0c	; 12
    119e:	0e 94 af 03 	call	0x75e	; 0x75e <vListInitialiseItem>
    11a2:	89 89       	ldd	r24, Y+17	; 0x11
    11a4:	9a 89       	ldd	r25, Y+18	; 0x12
    11a6:	29 89       	ldd	r18, Y+17	; 0x11
    11a8:	3a 89       	ldd	r19, Y+18	; 0x12
    11aa:	fc 01       	movw	r30, r24
    11ac:	31 87       	std	Z+9, r19	; 0x09
    11ae:	20 87       	std	Z+8, r18	; 0x08
    11b0:	8e 85       	ldd	r24, Y+14	; 0x0e
    11b2:	88 2f       	mov	r24, r24
    11b4:	90 e0       	ldi	r25, 0x00	; 0
    11b6:	24 e0       	ldi	r18, 0x04	; 4
    11b8:	30 e0       	ldi	r19, 0x00	; 0
    11ba:	28 1b       	sub	r18, r24
    11bc:	39 0b       	sbc	r19, r25
    11be:	89 89       	ldd	r24, Y+17	; 0x11
    11c0:	9a 89       	ldd	r25, Y+18	; 0x12
    11c2:	fc 01       	movw	r30, r24
    11c4:	35 87       	std	Z+13, r19	; 0x0d
    11c6:	24 87       	std	Z+12, r18	; 0x0c
    11c8:	89 89       	ldd	r24, Y+17	; 0x11
    11ca:	9a 89       	ldd	r25, Y+18	; 0x12
    11cc:	29 89       	ldd	r18, Y+17	; 0x11
    11ce:	3a 89       	ldd	r19, Y+18	; 0x12
    11d0:	fc 01       	movw	r30, r24
    11d2:	33 8b       	std	Z+19, r19	; 0x13
    11d4:	22 8b       	std	Z+18, r18	; 0x12
    11d6:	89 89       	ldd	r24, Y+17	; 0x11
    11d8:	9a 89       	ldd	r25, Y+18	; 0x12
    11da:	fc 01       	movw	r30, r24
    11dc:	11 a2       	std	Z+33, r1	; 0x21
    11de:	12 a2       	std	Z+34, r1	; 0x22
    11e0:	13 a2       	std	Z+35, r1	; 0x23
    11e2:	14 a2       	std	Z+36, r1	; 0x24
    11e4:	89 89       	ldd	r24, Y+17	; 0x11
    11e6:	9a 89       	ldd	r25, Y+18	; 0x12
    11e8:	fc 01       	movw	r30, r24
    11ea:	15 a2       	std	Z+37, r1	; 0x25
    11ec:	4c 85       	ldd	r20, Y+12	; 0x0c
    11ee:	5d 85       	ldd	r21, Y+13	; 0x0d
    11f0:	2c 81       	ldd	r18, Y+4	; 0x04
    11f2:	3d 81       	ldd	r19, Y+5	; 0x05
    11f4:	8a 81       	ldd	r24, Y+2	; 0x02
    11f6:	9b 81       	ldd	r25, Y+3	; 0x03
    11f8:	b9 01       	movw	r22, r18
    11fa:	0e 94 df 04 	call	0x9be	; 0x9be <pxPortInitialiseStack>
    11fe:	9c 01       	movw	r18, r24
    1200:	89 89       	ldd	r24, Y+17	; 0x11
    1202:	9a 89       	ldd	r25, Y+18	; 0x12
    1204:	fc 01       	movw	r30, r24
    1206:	31 83       	std	Z+1, r19	; 0x01
    1208:	20 83       	st	Z, r18
    120a:	8f 85       	ldd	r24, Y+15	; 0x0f
    120c:	98 89       	ldd	r25, Y+16	; 0x10
    120e:	89 2b       	or	r24, r25
    1210:	39 f0       	breq	.+14     	; 0x1220 <prvInitialiseNewTask+0x170>
    1212:	8f 85       	ldd	r24, Y+15	; 0x0f
    1214:	98 89       	ldd	r25, Y+16	; 0x10
    1216:	29 89       	ldd	r18, Y+17	; 0x11
    1218:	3a 89       	ldd	r19, Y+18	; 0x12
    121a:	fc 01       	movw	r30, r24
    121c:	31 83       	std	Z+1, r19	; 0x01
    121e:	20 83       	st	Z, r18
    1220:	00 00       	nop
    1222:	64 96       	adiw	r28, 0x14	; 20
    1224:	0f b6       	in	r0, 0x3f	; 63
    1226:	f8 94       	cli
    1228:	de bf       	out	0x3e, r29	; 62
    122a:	0f be       	out	0x3f, r0	; 63
    122c:	cd bf       	out	0x3d, r28	; 61
    122e:	df 91       	pop	r29
    1230:	cf 91       	pop	r28
    1232:	1f 91       	pop	r17
    1234:	0f 91       	pop	r16
    1236:	ef 90       	pop	r14
    1238:	df 90       	pop	r13
    123a:	cf 90       	pop	r12
    123c:	bf 90       	pop	r11
    123e:	af 90       	pop	r10
    1240:	9f 90       	pop	r9
    1242:	8f 90       	pop	r8
    1244:	08 95       	ret

00001246 <prvAddNewTaskToReadyList>:
    1246:	cf 93       	push	r28
    1248:	df 93       	push	r29
    124a:	00 d0       	rcall	.+0      	; 0x124c <prvAddNewTaskToReadyList+0x6>
    124c:	cd b7       	in	r28, 0x3d	; 61
    124e:	de b7       	in	r29, 0x3e	; 62
    1250:	9a 83       	std	Y+2, r25	; 0x02
    1252:	89 83       	std	Y+1, r24	; 0x01
    1254:	0f b6       	in	r0, 0x3f	; 63
    1256:	f8 94       	cli
    1258:	0f 92       	push	r0
    125a:	80 91 37 07 	lds	r24, 0x0737	; 0x800737 <uxCurrentNumberOfTasks>
    125e:	8f 5f       	subi	r24, 0xFF	; 255
    1260:	80 93 37 07 	sts	0x0737, r24	; 0x800737 <uxCurrentNumberOfTasks>
    1264:	80 91 df 06 	lds	r24, 0x06DF	; 0x8006df <pxCurrentTCB>
    1268:	90 91 e0 06 	lds	r25, 0x06E0	; 0x8006e0 <pxCurrentTCB+0x1>
    126c:	89 2b       	or	r24, r25
    126e:	69 f4       	brne	.+26     	; 0x128a <prvAddNewTaskToReadyList+0x44>
    1270:	89 81       	ldd	r24, Y+1	; 0x01
    1272:	9a 81       	ldd	r25, Y+2	; 0x02
    1274:	90 93 e0 06 	sts	0x06E0, r25	; 0x8006e0 <pxCurrentTCB+0x1>
    1278:	80 93 df 06 	sts	0x06DF, r24	; 0x8006df <pxCurrentTCB>
    127c:	80 91 37 07 	lds	r24, 0x0737	; 0x800737 <uxCurrentNumberOfTasks>
    1280:	81 30       	cpi	r24, 0x01	; 1
    1282:	c9 f4       	brne	.+50     	; 0x12b6 <prvAddNewTaskToReadyList+0x70>
    1284:	0e 94 75 0c 	call	0x18ea	; 0x18ea <prvInitialiseTaskLists>
    1288:	16 c0       	rjmp	.+44     	; 0x12b6 <prvAddNewTaskToReadyList+0x70>
    128a:	80 91 3b 07 	lds	r24, 0x073B	; 0x80073b <xSchedulerRunning>
    128e:	88 23       	and	r24, r24
    1290:	91 f4       	brne	.+36     	; 0x12b6 <prvAddNewTaskToReadyList+0x70>
    1292:	80 91 df 06 	lds	r24, 0x06DF	; 0x8006df <pxCurrentTCB>
    1296:	90 91 e0 06 	lds	r25, 0x06E0	; 0x8006e0 <pxCurrentTCB+0x1>
    129a:	fc 01       	movw	r30, r24
    129c:	26 89       	ldd	r18, Z+22	; 0x16
    129e:	89 81       	ldd	r24, Y+1	; 0x01
    12a0:	9a 81       	ldd	r25, Y+2	; 0x02
    12a2:	fc 01       	movw	r30, r24
    12a4:	86 89       	ldd	r24, Z+22	; 0x16
    12a6:	82 17       	cp	r24, r18
    12a8:	30 f0       	brcs	.+12     	; 0x12b6 <prvAddNewTaskToReadyList+0x70>
    12aa:	89 81       	ldd	r24, Y+1	; 0x01
    12ac:	9a 81       	ldd	r25, Y+2	; 0x02
    12ae:	90 93 e0 06 	sts	0x06E0, r25	; 0x8006e0 <pxCurrentTCB+0x1>
    12b2:	80 93 df 06 	sts	0x06DF, r24	; 0x8006df <pxCurrentTCB>
    12b6:	80 91 3f 07 	lds	r24, 0x073F	; 0x80073f <uxTaskNumber>
    12ba:	8f 5f       	subi	r24, 0xFF	; 255
    12bc:	80 93 3f 07 	sts	0x073F, r24	; 0x80073f <uxTaskNumber>
    12c0:	89 81       	ldd	r24, Y+1	; 0x01
    12c2:	9a 81       	ldd	r25, Y+2	; 0x02
    12c4:	fc 01       	movw	r30, r24
    12c6:	96 89       	ldd	r25, Z+22	; 0x16
    12c8:	80 91 3a 07 	lds	r24, 0x073A	; 0x80073a <uxTopReadyPriority>
    12cc:	89 17       	cp	r24, r25
    12ce:	30 f4       	brcc	.+12     	; 0x12dc <prvAddNewTaskToReadyList+0x96>
    12d0:	89 81       	ldd	r24, Y+1	; 0x01
    12d2:	9a 81       	ldd	r25, Y+2	; 0x02
    12d4:	fc 01       	movw	r30, r24
    12d6:	86 89       	ldd	r24, Z+22	; 0x16
    12d8:	80 93 3a 07 	sts	0x073A, r24	; 0x80073a <uxTopReadyPriority>
    12dc:	89 81       	ldd	r24, Y+1	; 0x01
    12de:	9a 81       	ldd	r25, Y+2	; 0x02
    12e0:	ac 01       	movw	r20, r24
    12e2:	4e 5f       	subi	r20, 0xFE	; 254
    12e4:	5f 4f       	sbci	r21, 0xFF	; 255
    12e6:	89 81       	ldd	r24, Y+1	; 0x01
    12e8:	9a 81       	ldd	r25, Y+2	; 0x02
    12ea:	fc 01       	movw	r30, r24
    12ec:	86 89       	ldd	r24, Z+22	; 0x16
    12ee:	28 2f       	mov	r18, r24
    12f0:	30 e0       	ldi	r19, 0x00	; 0
    12f2:	c9 01       	movw	r24, r18
    12f4:	88 0f       	add	r24, r24
    12f6:	99 1f       	adc	r25, r25
    12f8:	88 0f       	add	r24, r24
    12fa:	99 1f       	adc	r25, r25
    12fc:	88 0f       	add	r24, r24
    12fe:	99 1f       	adc	r25, r25
    1300:	82 0f       	add	r24, r18
    1302:	93 1f       	adc	r25, r19
    1304:	8f 51       	subi	r24, 0x1F	; 31
    1306:	99 4f       	sbci	r25, 0xF9	; 249
    1308:	ba 01       	movw	r22, r20
    130a:	0e 94 c1 03 	call	0x782	; 0x782 <vListInsertEnd>
    130e:	0f 90       	pop	r0
    1310:	0f be       	out	0x3f, r0	; 63
    1312:	80 91 3b 07 	lds	r24, 0x073B	; 0x80073b <xSchedulerRunning>
    1316:	88 23       	and	r24, r24
    1318:	71 f0       	breq	.+28     	; 0x1336 <prvAddNewTaskToReadyList+0xf0>
    131a:	80 91 df 06 	lds	r24, 0x06DF	; 0x8006df <pxCurrentTCB>
    131e:	90 91 e0 06 	lds	r25, 0x06E0	; 0x8006e0 <pxCurrentTCB+0x1>
    1322:	fc 01       	movw	r30, r24
    1324:	26 89       	ldd	r18, Z+22	; 0x16
    1326:	89 81       	ldd	r24, Y+1	; 0x01
    1328:	9a 81       	ldd	r25, Y+2	; 0x02
    132a:	fc 01       	movw	r30, r24
    132c:	86 89       	ldd	r24, Z+22	; 0x16
    132e:	28 17       	cp	r18, r24
    1330:	10 f4       	brcc	.+4      	; 0x1336 <prvAddNewTaskToReadyList+0xf0>
    1332:	0e 94 bd 06 	call	0xd7a	; 0xd7a <vPortYield>
    1336:	00 00       	nop
    1338:	0f 90       	pop	r0
    133a:	0f 90       	pop	r0
    133c:	df 91       	pop	r29
    133e:	cf 91       	pop	r28
    1340:	08 95       	ret

00001342 <vTaskDelay>:
    1342:	cf 93       	push	r28
    1344:	df 93       	push	r29
    1346:	00 d0       	rcall	.+0      	; 0x1348 <vTaskDelay+0x6>
    1348:	1f 92       	push	r1
    134a:	cd b7       	in	r28, 0x3d	; 61
    134c:	de b7       	in	r29, 0x3e	; 62
    134e:	9b 83       	std	Y+3, r25	; 0x03
    1350:	8a 83       	std	Y+2, r24	; 0x02
    1352:	19 82       	std	Y+1, r1	; 0x01
    1354:	8a 81       	ldd	r24, Y+2	; 0x02
    1356:	9b 81       	ldd	r25, Y+3	; 0x03
    1358:	89 2b       	or	r24, r25
    135a:	51 f0       	breq	.+20     	; 0x1370 <vTaskDelay+0x2e>
    135c:	0e 94 66 0a 	call	0x14cc	; 0x14cc <vTaskSuspendAll>
    1360:	8a 81       	ldd	r24, Y+2	; 0x02
    1362:	9b 81       	ldd	r25, Y+3	; 0x03
    1364:	60 e0       	ldi	r22, 0x00	; 0
    1366:	0e 94 2f 0d 	call	0x1a5e	; 0x1a5e <prvAddCurrentTaskToDelayedList>
    136a:	0e 94 73 0a 	call	0x14e6	; 0x14e6 <xTaskResumeAll>
    136e:	89 83       	std	Y+1, r24	; 0x01
    1370:	89 81       	ldd	r24, Y+1	; 0x01
    1372:	88 23       	and	r24, r24
    1374:	11 f4       	brne	.+4      	; 0x137a <vTaskDelay+0x38>
    1376:	0e 94 bd 06 	call	0xd7a	; 0xd7a <vPortYield>
    137a:	00 00       	nop
    137c:	0f 90       	pop	r0
    137e:	0f 90       	pop	r0
    1380:	0f 90       	pop	r0
    1382:	df 91       	pop	r29
    1384:	cf 91       	pop	r28
    1386:	08 95       	ret

00001388 <vTaskSuspend>:
    1388:	cf 93       	push	r28
    138a:	df 93       	push	r29
    138c:	00 d0       	rcall	.+0      	; 0x138e <vTaskSuspend+0x6>
    138e:	00 d0       	rcall	.+0      	; 0x1390 <vTaskSuspend+0x8>
    1390:	cd b7       	in	r28, 0x3d	; 61
    1392:	de b7       	in	r29, 0x3e	; 62
    1394:	9c 83       	std	Y+4, r25	; 0x04
    1396:	8b 83       	std	Y+3, r24	; 0x03
    1398:	0f b6       	in	r0, 0x3f	; 63
    139a:	f8 94       	cli
    139c:	0f 92       	push	r0
    139e:	8b 81       	ldd	r24, Y+3	; 0x03
    13a0:	9c 81       	ldd	r25, Y+4	; 0x04
    13a2:	89 2b       	or	r24, r25
    13a4:	29 f4       	brne	.+10     	; 0x13b0 <vTaskSuspend+0x28>
    13a6:	80 91 df 06 	lds	r24, 0x06DF	; 0x8006df <pxCurrentTCB>
    13aa:	90 91 e0 06 	lds	r25, 0x06E0	; 0x8006e0 <pxCurrentTCB+0x1>
    13ae:	02 c0       	rjmp	.+4      	; 0x13b4 <vTaskSuspend+0x2c>
    13b0:	8b 81       	ldd	r24, Y+3	; 0x03
    13b2:	9c 81       	ldd	r25, Y+4	; 0x04
    13b4:	9a 83       	std	Y+2, r25	; 0x02
    13b6:	89 83       	std	Y+1, r24	; 0x01
    13b8:	89 81       	ldd	r24, Y+1	; 0x01
    13ba:	9a 81       	ldd	r25, Y+2	; 0x02
    13bc:	02 96       	adiw	r24, 0x02	; 2
    13be:	0e 94 88 04 	call	0x910	; 0x910 <uxListRemove>
    13c2:	89 81       	ldd	r24, Y+1	; 0x01
    13c4:	9a 81       	ldd	r25, Y+2	; 0x02
    13c6:	fc 01       	movw	r30, r24
    13c8:	84 89       	ldd	r24, Z+20	; 0x14
    13ca:	95 89       	ldd	r25, Z+21	; 0x15
    13cc:	89 2b       	or	r24, r25
    13ce:	29 f0       	breq	.+10     	; 0x13da <vTaskSuspend+0x52>
    13d0:	89 81       	ldd	r24, Y+1	; 0x01
    13d2:	9a 81       	ldd	r25, Y+2	; 0x02
    13d4:	0c 96       	adiw	r24, 0x0c	; 12
    13d6:	0e 94 88 04 	call	0x910	; 0x910 <uxListRemove>
    13da:	89 81       	ldd	r24, Y+1	; 0x01
    13dc:	9a 81       	ldd	r25, Y+2	; 0x02
    13de:	02 96       	adiw	r24, 0x02	; 2
    13e0:	bc 01       	movw	r22, r24
    13e2:	8e e2       	ldi	r24, 0x2E	; 46
    13e4:	97 e0       	ldi	r25, 0x07	; 7
    13e6:	0e 94 c1 03 	call	0x782	; 0x782 <vListInsertEnd>
    13ea:	89 81       	ldd	r24, Y+1	; 0x01
    13ec:	9a 81       	ldd	r25, Y+2	; 0x02
    13ee:	fc 01       	movw	r30, r24
    13f0:	85 a1       	ldd	r24, Z+37	; 0x25
    13f2:	81 30       	cpi	r24, 0x01	; 1
    13f4:	21 f4       	brne	.+8      	; 0x13fe <vTaskSuspend+0x76>
    13f6:	89 81       	ldd	r24, Y+1	; 0x01
    13f8:	9a 81       	ldd	r25, Y+2	; 0x02
    13fa:	fc 01       	movw	r30, r24
    13fc:	15 a2       	std	Z+37, r1	; 0x25
    13fe:	0f 90       	pop	r0
    1400:	0f be       	out	0x3f, r0	; 63
    1402:	80 91 3b 07 	lds	r24, 0x073B	; 0x80073b <xSchedulerRunning>
    1406:	88 23       	and	r24, r24
    1408:	39 f0       	breq	.+14     	; 0x1418 <vTaskSuspend+0x90>
    140a:	0f b6       	in	r0, 0x3f	; 63
    140c:	f8 94       	cli
    140e:	0f 92       	push	r0
    1410:	0e 94 00 0d 	call	0x1a00	; 0x1a00 <prvResetNextTaskUnblockTime>
    1414:	0f 90       	pop	r0
    1416:	0f be       	out	0x3f, r0	; 63
    1418:	80 91 df 06 	lds	r24, 0x06DF	; 0x8006df <pxCurrentTCB>
    141c:	90 91 e0 06 	lds	r25, 0x06E0	; 0x8006e0 <pxCurrentTCB+0x1>
    1420:	29 81       	ldd	r18, Y+1	; 0x01
    1422:	3a 81       	ldd	r19, Y+2	; 0x02
    1424:	28 17       	cp	r18, r24
    1426:	39 07       	cpc	r19, r25
    1428:	a1 f4       	brne	.+40     	; 0x1452 <vTaskSuspend+0xca>
    142a:	80 91 3b 07 	lds	r24, 0x073B	; 0x80073b <xSchedulerRunning>
    142e:	88 23       	and	r24, r24
    1430:	19 f0       	breq	.+6      	; 0x1438 <vTaskSuspend+0xb0>
    1432:	0e 94 bd 06 	call	0xd7a	; 0xd7a <vPortYield>
    1436:	0d c0       	rjmp	.+26     	; 0x1452 <vTaskSuspend+0xca>
    1438:	90 91 2e 07 	lds	r25, 0x072E	; 0x80072e <xSuspendedTaskList>
    143c:	80 91 37 07 	lds	r24, 0x0737	; 0x800737 <uxCurrentNumberOfTasks>
    1440:	98 17       	cp	r25, r24
    1442:	29 f4       	brne	.+10     	; 0x144e <vTaskSuspend+0xc6>
    1444:	10 92 e0 06 	sts	0x06E0, r1	; 0x8006e0 <pxCurrentTCB+0x1>
    1448:	10 92 df 06 	sts	0x06DF, r1	; 0x8006df <pxCurrentTCB>
    144c:	02 c0       	rjmp	.+4      	; 0x1452 <vTaskSuspend+0xca>
    144e:	0e 94 f7 0b 	call	0x17ee	; 0x17ee <vTaskSwitchContext>
    1452:	00 00       	nop
    1454:	0f 90       	pop	r0
    1456:	0f 90       	pop	r0
    1458:	0f 90       	pop	r0
    145a:	0f 90       	pop	r0
    145c:	df 91       	pop	r29
    145e:	cf 91       	pop	r28
    1460:	08 95       	ret

00001462 <vTaskStartScheduler>:
    1462:	ef 92       	push	r14
    1464:	ff 92       	push	r15
    1466:	0f 93       	push	r16
    1468:	cf 93       	push	r28
    146a:	df 93       	push	r29
    146c:	1f 92       	push	r1
    146e:	cd b7       	in	r28, 0x3d	; 61
    1470:	de b7       	in	r29, 0x3e	; 62
    1472:	0f 2e       	mov	r0, r31
    1474:	f2 e4       	ldi	r31, 0x42	; 66
    1476:	ef 2e       	mov	r14, r31
    1478:	f7 e0       	ldi	r31, 0x07	; 7
    147a:	ff 2e       	mov	r15, r31
    147c:	f0 2d       	mov	r31, r0
    147e:	00 e0       	ldi	r16, 0x00	; 0
    1480:	20 e0       	ldi	r18, 0x00	; 0
    1482:	30 e0       	ldi	r19, 0x00	; 0
    1484:	45 e5       	ldi	r20, 0x55	; 85
    1486:	50 e0       	ldi	r21, 0x00	; 0
    1488:	6e ee       	ldi	r22, 0xEE	; 238
    148a:	70 e0       	ldi	r23, 0x00	; 0
    148c:	8b e6       	ldi	r24, 0x6B	; 107
    148e:	9c e0       	ldi	r25, 0x0C	; 12
    1490:	0e 94 db 07 	call	0xfb6	; 0xfb6 <xTaskCreate>
    1494:	89 83       	std	Y+1, r24	; 0x01
    1496:	89 81       	ldd	r24, Y+1	; 0x01
    1498:	81 30       	cpi	r24, 0x01	; 1
    149a:	81 f4       	brne	.+32     	; 0x14bc <vTaskStartScheduler+0x5a>
    149c:	f8 94       	cli
    149e:	8f ef       	ldi	r24, 0xFF	; 255
    14a0:	9f ef       	ldi	r25, 0xFF	; 255
    14a2:	90 93 41 07 	sts	0x0741, r25	; 0x800741 <xNextTaskUnblockTime+0x1>
    14a6:	80 93 40 07 	sts	0x0740, r24	; 0x800740 <xNextTaskUnblockTime>
    14aa:	81 e0       	ldi	r24, 0x01	; 1
    14ac:	80 93 3b 07 	sts	0x073B, r24	; 0x80073b <xSchedulerRunning>
    14b0:	10 92 39 07 	sts	0x0739, r1	; 0x800739 <xTickCount+0x1>
    14b4:	10 92 38 07 	sts	0x0738, r1	; 0x800738 <xTickCount>
    14b8:	0e 94 88 06 	call	0xd10	; 0xd10 <xPortStartScheduler>
    14bc:	00 00       	nop
    14be:	0f 90       	pop	r0
    14c0:	df 91       	pop	r29
    14c2:	cf 91       	pop	r28
    14c4:	0f 91       	pop	r16
    14c6:	ff 90       	pop	r15
    14c8:	ef 90       	pop	r14
    14ca:	08 95       	ret

000014cc <vTaskSuspendAll>:
    14cc:	cf 93       	push	r28
    14ce:	df 93       	push	r29
    14d0:	cd b7       	in	r28, 0x3d	; 61
    14d2:	de b7       	in	r29, 0x3e	; 62
    14d4:	80 91 44 07 	lds	r24, 0x0744	; 0x800744 <uxSchedulerSuspended>
    14d8:	8f 5f       	subi	r24, 0xFF	; 255
    14da:	80 93 44 07 	sts	0x0744, r24	; 0x800744 <uxSchedulerSuspended>
    14de:	00 00       	nop
    14e0:	df 91       	pop	r29
    14e2:	cf 91       	pop	r28
    14e4:	08 95       	ret

000014e6 <xTaskResumeAll>:
    14e6:	cf 93       	push	r28
    14e8:	df 93       	push	r29
    14ea:	00 d0       	rcall	.+0      	; 0x14ec <xTaskResumeAll+0x6>
    14ec:	00 d0       	rcall	.+0      	; 0x14ee <xTaskResumeAll+0x8>
    14ee:	cd b7       	in	r28, 0x3d	; 61
    14f0:	de b7       	in	r29, 0x3e	; 62
    14f2:	1a 82       	std	Y+2, r1	; 0x02
    14f4:	19 82       	std	Y+1, r1	; 0x01
    14f6:	1b 82       	std	Y+3, r1	; 0x03
    14f8:	0f b6       	in	r0, 0x3f	; 63
    14fa:	f8 94       	cli
    14fc:	0f 92       	push	r0
    14fe:	80 91 44 07 	lds	r24, 0x0744	; 0x800744 <uxSchedulerSuspended>
    1502:	81 50       	subi	r24, 0x01	; 1
    1504:	80 93 44 07 	sts	0x0744, r24	; 0x800744 <uxSchedulerSuspended>
    1508:	80 91 44 07 	lds	r24, 0x0744	; 0x800744 <uxSchedulerSuspended>
    150c:	88 23       	and	r24, r24
    150e:	09 f0       	breq	.+2      	; 0x1512 <xTaskResumeAll+0x2c>
    1510:	77 c0       	rjmp	.+238    	; 0x1600 <xTaskResumeAll+0x11a>
    1512:	80 91 37 07 	lds	r24, 0x0737	; 0x800737 <uxCurrentNumberOfTasks>
    1516:	88 23       	and	r24, r24
    1518:	09 f4       	brne	.+2      	; 0x151c <xTaskResumeAll+0x36>
    151a:	72 c0       	rjmp	.+228    	; 0x1600 <xTaskResumeAll+0x11a>
    151c:	49 c0       	rjmp	.+146    	; 0x15b0 <xTaskResumeAll+0xca>
    151e:	80 91 20 07 	lds	r24, 0x0720	; 0x800720 <xPendingReadyList+0x5>
    1522:	90 91 21 07 	lds	r25, 0x0721	; 0x800721 <xPendingReadyList+0x6>
    1526:	fc 01       	movw	r30, r24
    1528:	86 81       	ldd	r24, Z+6	; 0x06
    152a:	97 81       	ldd	r25, Z+7	; 0x07
    152c:	9a 83       	std	Y+2, r25	; 0x02
    152e:	89 83       	std	Y+1, r24	; 0x01
    1530:	89 81       	ldd	r24, Y+1	; 0x01
    1532:	9a 81       	ldd	r25, Y+2	; 0x02
    1534:	0c 96       	adiw	r24, 0x0c	; 12
    1536:	0e 94 88 04 	call	0x910	; 0x910 <uxListRemove>
    153a:	89 81       	ldd	r24, Y+1	; 0x01
    153c:	9a 81       	ldd	r25, Y+2	; 0x02
    153e:	02 96       	adiw	r24, 0x02	; 2
    1540:	0e 94 88 04 	call	0x910	; 0x910 <uxListRemove>
    1544:	89 81       	ldd	r24, Y+1	; 0x01
    1546:	9a 81       	ldd	r25, Y+2	; 0x02
    1548:	fc 01       	movw	r30, r24
    154a:	96 89       	ldd	r25, Z+22	; 0x16
    154c:	80 91 3a 07 	lds	r24, 0x073A	; 0x80073a <uxTopReadyPriority>
    1550:	89 17       	cp	r24, r25
    1552:	30 f4       	brcc	.+12     	; 0x1560 <xTaskResumeAll+0x7a>
    1554:	89 81       	ldd	r24, Y+1	; 0x01
    1556:	9a 81       	ldd	r25, Y+2	; 0x02
    1558:	fc 01       	movw	r30, r24
    155a:	86 89       	ldd	r24, Z+22	; 0x16
    155c:	80 93 3a 07 	sts	0x073A, r24	; 0x80073a <uxTopReadyPriority>
    1560:	89 81       	ldd	r24, Y+1	; 0x01
    1562:	9a 81       	ldd	r25, Y+2	; 0x02
    1564:	ac 01       	movw	r20, r24
    1566:	4e 5f       	subi	r20, 0xFE	; 254
    1568:	5f 4f       	sbci	r21, 0xFF	; 255
    156a:	89 81       	ldd	r24, Y+1	; 0x01
    156c:	9a 81       	ldd	r25, Y+2	; 0x02
    156e:	fc 01       	movw	r30, r24
    1570:	86 89       	ldd	r24, Z+22	; 0x16
    1572:	28 2f       	mov	r18, r24
    1574:	30 e0       	ldi	r19, 0x00	; 0
    1576:	c9 01       	movw	r24, r18
    1578:	88 0f       	add	r24, r24
    157a:	99 1f       	adc	r25, r25
    157c:	88 0f       	add	r24, r24
    157e:	99 1f       	adc	r25, r25
    1580:	88 0f       	add	r24, r24
    1582:	99 1f       	adc	r25, r25
    1584:	82 0f       	add	r24, r18
    1586:	93 1f       	adc	r25, r19
    1588:	8f 51       	subi	r24, 0x1F	; 31
    158a:	99 4f       	sbci	r25, 0xF9	; 249
    158c:	ba 01       	movw	r22, r20
    158e:	0e 94 c1 03 	call	0x782	; 0x782 <vListInsertEnd>
    1592:	89 81       	ldd	r24, Y+1	; 0x01
    1594:	9a 81       	ldd	r25, Y+2	; 0x02
    1596:	fc 01       	movw	r30, r24
    1598:	26 89       	ldd	r18, Z+22	; 0x16
    159a:	80 91 df 06 	lds	r24, 0x06DF	; 0x8006df <pxCurrentTCB>
    159e:	90 91 e0 06 	lds	r25, 0x06E0	; 0x8006e0 <pxCurrentTCB+0x1>
    15a2:	fc 01       	movw	r30, r24
    15a4:	86 89       	ldd	r24, Z+22	; 0x16
    15a6:	28 17       	cp	r18, r24
    15a8:	18 f0       	brcs	.+6      	; 0x15b0 <xTaskResumeAll+0xca>
    15aa:	81 e0       	ldi	r24, 0x01	; 1
    15ac:	80 93 3d 07 	sts	0x073D, r24	; 0x80073d <xYieldPending>
    15b0:	80 91 1b 07 	lds	r24, 0x071B	; 0x80071b <xPendingReadyList>
    15b4:	88 23       	and	r24, r24
    15b6:	09 f0       	breq	.+2      	; 0x15ba <xTaskResumeAll+0xd4>
    15b8:	b2 cf       	rjmp	.-156    	; 0x151e <xTaskResumeAll+0x38>
    15ba:	89 81       	ldd	r24, Y+1	; 0x01
    15bc:	9a 81       	ldd	r25, Y+2	; 0x02
    15be:	89 2b       	or	r24, r25
    15c0:	11 f0       	breq	.+4      	; 0x15c6 <xTaskResumeAll+0xe0>
    15c2:	0e 94 00 0d 	call	0x1a00	; 0x1a00 <prvResetNextTaskUnblockTime>
    15c6:	80 91 3c 07 	lds	r24, 0x073C	; 0x80073c <uxPendedTicks>
    15ca:	8c 83       	std	Y+4, r24	; 0x04
    15cc:	8c 81       	ldd	r24, Y+4	; 0x04
    15ce:	88 23       	and	r24, r24
    15d0:	79 f0       	breq	.+30     	; 0x15f0 <xTaskResumeAll+0x10a>
    15d2:	0e 94 0a 0b 	call	0x1614	; 0x1614 <xTaskIncrementTick>
    15d6:	88 23       	and	r24, r24
    15d8:	19 f0       	breq	.+6      	; 0x15e0 <xTaskResumeAll+0xfa>
    15da:	81 e0       	ldi	r24, 0x01	; 1
    15dc:	80 93 3d 07 	sts	0x073D, r24	; 0x80073d <xYieldPending>
    15e0:	8c 81       	ldd	r24, Y+4	; 0x04
    15e2:	81 50       	subi	r24, 0x01	; 1
    15e4:	8c 83       	std	Y+4, r24	; 0x04
    15e6:	8c 81       	ldd	r24, Y+4	; 0x04
    15e8:	88 23       	and	r24, r24
    15ea:	99 f7       	brne	.-26     	; 0x15d2 <xTaskResumeAll+0xec>
    15ec:	10 92 3c 07 	sts	0x073C, r1	; 0x80073c <uxPendedTicks>
    15f0:	80 91 3d 07 	lds	r24, 0x073D	; 0x80073d <xYieldPending>
    15f4:	88 23       	and	r24, r24
    15f6:	21 f0       	breq	.+8      	; 0x1600 <xTaskResumeAll+0x11a>
    15f8:	81 e0       	ldi	r24, 0x01	; 1
    15fa:	8b 83       	std	Y+3, r24	; 0x03
    15fc:	0e 94 bd 06 	call	0xd7a	; 0xd7a <vPortYield>
    1600:	0f 90       	pop	r0
    1602:	0f be       	out	0x3f, r0	; 63
    1604:	8b 81       	ldd	r24, Y+3	; 0x03
    1606:	0f 90       	pop	r0
    1608:	0f 90       	pop	r0
    160a:	0f 90       	pop	r0
    160c:	0f 90       	pop	r0
    160e:	df 91       	pop	r29
    1610:	cf 91       	pop	r28
    1612:	08 95       	ret

00001614 <xTaskIncrementTick>:
    1614:	cf 93       	push	r28
    1616:	df 93       	push	r29
    1618:	cd b7       	in	r28, 0x3d	; 61
    161a:	de b7       	in	r29, 0x3e	; 62
    161c:	29 97       	sbiw	r28, 0x09	; 9
    161e:	0f b6       	in	r0, 0x3f	; 63
    1620:	f8 94       	cli
    1622:	de bf       	out	0x3e, r29	; 62
    1624:	0f be       	out	0x3f, r0	; 63
    1626:	cd bf       	out	0x3d, r28	; 61
    1628:	19 82       	std	Y+1, r1	; 0x01
    162a:	80 91 44 07 	lds	r24, 0x0744	; 0x800744 <uxSchedulerSuspended>
    162e:	88 23       	and	r24, r24
    1630:	09 f0       	breq	.+2      	; 0x1634 <xTaskIncrementTick+0x20>
    1632:	c8 c0       	rjmp	.+400    	; 0x17c4 <xTaskIncrementTick+0x1b0>
    1634:	80 91 38 07 	lds	r24, 0x0738	; 0x800738 <xTickCount>
    1638:	90 91 39 07 	lds	r25, 0x0739	; 0x800739 <xTickCount+0x1>
    163c:	01 96       	adiw	r24, 0x01	; 1
    163e:	9b 83       	std	Y+3, r25	; 0x03
    1640:	8a 83       	std	Y+2, r24	; 0x02
    1642:	8a 81       	ldd	r24, Y+2	; 0x02
    1644:	9b 81       	ldd	r25, Y+3	; 0x03
    1646:	90 93 39 07 	sts	0x0739, r25	; 0x800739 <xTickCount+0x1>
    164a:	80 93 38 07 	sts	0x0738, r24	; 0x800738 <xTickCount>
    164e:	8a 81       	ldd	r24, Y+2	; 0x02
    1650:	9b 81       	ldd	r25, Y+3	; 0x03
    1652:	89 2b       	or	r24, r25
    1654:	d9 f4       	brne	.+54     	; 0x168c <xTaskIncrementTick+0x78>
    1656:	80 91 17 07 	lds	r24, 0x0717	; 0x800717 <pxDelayedTaskList>
    165a:	90 91 18 07 	lds	r25, 0x0718	; 0x800718 <pxDelayedTaskList+0x1>
    165e:	9d 83       	std	Y+5, r25	; 0x05
    1660:	8c 83       	std	Y+4, r24	; 0x04
    1662:	80 91 19 07 	lds	r24, 0x0719	; 0x800719 <pxOverflowDelayedTaskList>
    1666:	90 91 1a 07 	lds	r25, 0x071A	; 0x80071a <pxOverflowDelayedTaskList+0x1>
    166a:	90 93 18 07 	sts	0x0718, r25	; 0x800718 <pxDelayedTaskList+0x1>
    166e:	80 93 17 07 	sts	0x0717, r24	; 0x800717 <pxDelayedTaskList>
    1672:	8c 81       	ldd	r24, Y+4	; 0x04
    1674:	9d 81       	ldd	r25, Y+5	; 0x05
    1676:	90 93 1a 07 	sts	0x071A, r25	; 0x80071a <pxOverflowDelayedTaskList+0x1>
    167a:	80 93 19 07 	sts	0x0719, r24	; 0x800719 <pxOverflowDelayedTaskList>
    167e:	80 91 3e 07 	lds	r24, 0x073E	; 0x80073e <xNumOfOverflows>
    1682:	8f 5f       	subi	r24, 0xFF	; 255
    1684:	80 93 3e 07 	sts	0x073E, r24	; 0x80073e <xNumOfOverflows>
    1688:	0e 94 00 0d 	call	0x1a00	; 0x1a00 <prvResetNextTaskUnblockTime>
    168c:	80 91 40 07 	lds	r24, 0x0740	; 0x800740 <xNextTaskUnblockTime>
    1690:	90 91 41 07 	lds	r25, 0x0741	; 0x800741 <xNextTaskUnblockTime+0x1>
    1694:	2a 81       	ldd	r18, Y+2	; 0x02
    1696:	3b 81       	ldd	r19, Y+3	; 0x03
    1698:	28 17       	cp	r18, r24
    169a:	39 07       	cpc	r19, r25
    169c:	08 f4       	brcc	.+2      	; 0x16a0 <xTaskIncrementTick+0x8c>
    169e:	78 c0       	rjmp	.+240    	; 0x1790 <xTaskIncrementTick+0x17c>
    16a0:	80 91 17 07 	lds	r24, 0x0717	; 0x800717 <pxDelayedTaskList>
    16a4:	90 91 18 07 	lds	r25, 0x0718	; 0x800718 <pxDelayedTaskList+0x1>
    16a8:	fc 01       	movw	r30, r24
    16aa:	80 81       	ld	r24, Z
    16ac:	88 23       	and	r24, r24
    16ae:	39 f4       	brne	.+14     	; 0x16be <xTaskIncrementTick+0xaa>
    16b0:	8f ef       	ldi	r24, 0xFF	; 255
    16b2:	9f ef       	ldi	r25, 0xFF	; 255
    16b4:	90 93 41 07 	sts	0x0741, r25	; 0x800741 <xNextTaskUnblockTime+0x1>
    16b8:	80 93 40 07 	sts	0x0740, r24	; 0x800740 <xNextTaskUnblockTime>
    16bc:	69 c0       	rjmp	.+210    	; 0x1790 <xTaskIncrementTick+0x17c>
    16be:	80 91 17 07 	lds	r24, 0x0717	; 0x800717 <pxDelayedTaskList>
    16c2:	90 91 18 07 	lds	r25, 0x0718	; 0x800718 <pxDelayedTaskList+0x1>
    16c6:	fc 01       	movw	r30, r24
    16c8:	85 81       	ldd	r24, Z+5	; 0x05
    16ca:	96 81       	ldd	r25, Z+6	; 0x06
    16cc:	fc 01       	movw	r30, r24
    16ce:	86 81       	ldd	r24, Z+6	; 0x06
    16d0:	97 81       	ldd	r25, Z+7	; 0x07
    16d2:	9f 83       	std	Y+7, r25	; 0x07
    16d4:	8e 83       	std	Y+6, r24	; 0x06
    16d6:	8e 81       	ldd	r24, Y+6	; 0x06
    16d8:	9f 81       	ldd	r25, Y+7	; 0x07
    16da:	fc 01       	movw	r30, r24
    16dc:	82 81       	ldd	r24, Z+2	; 0x02
    16de:	93 81       	ldd	r25, Z+3	; 0x03
    16e0:	99 87       	std	Y+9, r25	; 0x09
    16e2:	88 87       	std	Y+8, r24	; 0x08
    16e4:	2a 81       	ldd	r18, Y+2	; 0x02
    16e6:	3b 81       	ldd	r19, Y+3	; 0x03
    16e8:	88 85       	ldd	r24, Y+8	; 0x08
    16ea:	99 85       	ldd	r25, Y+9	; 0x09
    16ec:	28 17       	cp	r18, r24
    16ee:	39 07       	cpc	r19, r25
    16f0:	38 f4       	brcc	.+14     	; 0x1700 <xTaskIncrementTick+0xec>
    16f2:	88 85       	ldd	r24, Y+8	; 0x08
    16f4:	99 85       	ldd	r25, Y+9	; 0x09
    16f6:	90 93 41 07 	sts	0x0741, r25	; 0x800741 <xNextTaskUnblockTime+0x1>
    16fa:	80 93 40 07 	sts	0x0740, r24	; 0x800740 <xNextTaskUnblockTime>
    16fe:	48 c0       	rjmp	.+144    	; 0x1790 <xTaskIncrementTick+0x17c>
    1700:	8e 81       	ldd	r24, Y+6	; 0x06
    1702:	9f 81       	ldd	r25, Y+7	; 0x07
    1704:	02 96       	adiw	r24, 0x02	; 2
    1706:	0e 94 88 04 	call	0x910	; 0x910 <uxListRemove>
    170a:	8e 81       	ldd	r24, Y+6	; 0x06
    170c:	9f 81       	ldd	r25, Y+7	; 0x07
    170e:	fc 01       	movw	r30, r24
    1710:	84 89       	ldd	r24, Z+20	; 0x14
    1712:	95 89       	ldd	r25, Z+21	; 0x15
    1714:	89 2b       	or	r24, r25
    1716:	29 f0       	breq	.+10     	; 0x1722 <xTaskIncrementTick+0x10e>
    1718:	8e 81       	ldd	r24, Y+6	; 0x06
    171a:	9f 81       	ldd	r25, Y+7	; 0x07
    171c:	0c 96       	adiw	r24, 0x0c	; 12
    171e:	0e 94 88 04 	call	0x910	; 0x910 <uxListRemove>
    1722:	8e 81       	ldd	r24, Y+6	; 0x06
    1724:	9f 81       	ldd	r25, Y+7	; 0x07
    1726:	fc 01       	movw	r30, r24
    1728:	96 89       	ldd	r25, Z+22	; 0x16
    172a:	80 91 3a 07 	lds	r24, 0x073A	; 0x80073a <uxTopReadyPriority>
    172e:	89 17       	cp	r24, r25
    1730:	30 f4       	brcc	.+12     	; 0x173e <xTaskIncrementTick+0x12a>
    1732:	8e 81       	ldd	r24, Y+6	; 0x06
    1734:	9f 81       	ldd	r25, Y+7	; 0x07
    1736:	fc 01       	movw	r30, r24
    1738:	86 89       	ldd	r24, Z+22	; 0x16
    173a:	80 93 3a 07 	sts	0x073A, r24	; 0x80073a <uxTopReadyPriority>
    173e:	8e 81       	ldd	r24, Y+6	; 0x06
    1740:	9f 81       	ldd	r25, Y+7	; 0x07
    1742:	ac 01       	movw	r20, r24
    1744:	4e 5f       	subi	r20, 0xFE	; 254
    1746:	5f 4f       	sbci	r21, 0xFF	; 255
    1748:	8e 81       	ldd	r24, Y+6	; 0x06
    174a:	9f 81       	ldd	r25, Y+7	; 0x07
    174c:	fc 01       	movw	r30, r24
    174e:	86 89       	ldd	r24, Z+22	; 0x16
    1750:	28 2f       	mov	r18, r24
    1752:	30 e0       	ldi	r19, 0x00	; 0
    1754:	c9 01       	movw	r24, r18
    1756:	88 0f       	add	r24, r24
    1758:	99 1f       	adc	r25, r25
    175a:	88 0f       	add	r24, r24
    175c:	99 1f       	adc	r25, r25
    175e:	88 0f       	add	r24, r24
    1760:	99 1f       	adc	r25, r25
    1762:	82 0f       	add	r24, r18
    1764:	93 1f       	adc	r25, r19
    1766:	8f 51       	subi	r24, 0x1F	; 31
    1768:	99 4f       	sbci	r25, 0xF9	; 249
    176a:	ba 01       	movw	r22, r20
    176c:	0e 94 c1 03 	call	0x782	; 0x782 <vListInsertEnd>
    1770:	8e 81       	ldd	r24, Y+6	; 0x06
    1772:	9f 81       	ldd	r25, Y+7	; 0x07
    1774:	fc 01       	movw	r30, r24
    1776:	26 89       	ldd	r18, Z+22	; 0x16
    1778:	80 91 df 06 	lds	r24, 0x06DF	; 0x8006df <pxCurrentTCB>
    177c:	90 91 e0 06 	lds	r25, 0x06E0	; 0x8006e0 <pxCurrentTCB+0x1>
    1780:	fc 01       	movw	r30, r24
    1782:	86 89       	ldd	r24, Z+22	; 0x16
    1784:	28 17       	cp	r18, r24
    1786:	08 f4       	brcc	.+2      	; 0x178a <xTaskIncrementTick+0x176>
    1788:	8b cf       	rjmp	.-234    	; 0x16a0 <xTaskIncrementTick+0x8c>
    178a:	81 e0       	ldi	r24, 0x01	; 1
    178c:	89 83       	std	Y+1, r24	; 0x01
    178e:	88 cf       	rjmp	.-240    	; 0x16a0 <xTaskIncrementTick+0x8c>
    1790:	80 91 df 06 	lds	r24, 0x06DF	; 0x8006df <pxCurrentTCB>
    1794:	90 91 e0 06 	lds	r25, 0x06E0	; 0x8006e0 <pxCurrentTCB+0x1>
    1798:	fc 01       	movw	r30, r24
    179a:	86 89       	ldd	r24, Z+22	; 0x16
    179c:	28 2f       	mov	r18, r24
    179e:	30 e0       	ldi	r19, 0x00	; 0
    17a0:	c9 01       	movw	r24, r18
    17a2:	88 0f       	add	r24, r24
    17a4:	99 1f       	adc	r25, r25
    17a6:	88 0f       	add	r24, r24
    17a8:	99 1f       	adc	r25, r25
    17aa:	88 0f       	add	r24, r24
    17ac:	99 1f       	adc	r25, r25
    17ae:	82 0f       	add	r24, r18
    17b0:	93 1f       	adc	r25, r19
    17b2:	8f 51       	subi	r24, 0x1F	; 31
    17b4:	99 4f       	sbci	r25, 0xF9	; 249
    17b6:	fc 01       	movw	r30, r24
    17b8:	80 81       	ld	r24, Z
    17ba:	82 30       	cpi	r24, 0x02	; 2
    17bc:	40 f0       	brcs	.+16     	; 0x17ce <xTaskIncrementTick+0x1ba>
    17be:	81 e0       	ldi	r24, 0x01	; 1
    17c0:	89 83       	std	Y+1, r24	; 0x01
    17c2:	05 c0       	rjmp	.+10     	; 0x17ce <xTaskIncrementTick+0x1ba>
    17c4:	80 91 3c 07 	lds	r24, 0x073C	; 0x80073c <uxPendedTicks>
    17c8:	8f 5f       	subi	r24, 0xFF	; 255
    17ca:	80 93 3c 07 	sts	0x073C, r24	; 0x80073c <uxPendedTicks>
    17ce:	80 91 3d 07 	lds	r24, 0x073D	; 0x80073d <xYieldPending>
    17d2:	88 23       	and	r24, r24
    17d4:	11 f0       	breq	.+4      	; 0x17da <xTaskIncrementTick+0x1c6>
    17d6:	81 e0       	ldi	r24, 0x01	; 1
    17d8:	89 83       	std	Y+1, r24	; 0x01
    17da:	89 81       	ldd	r24, Y+1	; 0x01
    17dc:	29 96       	adiw	r28, 0x09	; 9
    17de:	0f b6       	in	r0, 0x3f	; 63
    17e0:	f8 94       	cli
    17e2:	de bf       	out	0x3e, r29	; 62
    17e4:	0f be       	out	0x3f, r0	; 63
    17e6:	cd bf       	out	0x3d, r28	; 61
    17e8:	df 91       	pop	r29
    17ea:	cf 91       	pop	r28
    17ec:	08 95       	ret

000017ee <vTaskSwitchContext>:
    17ee:	cf 93       	push	r28
    17f0:	df 93       	push	r29
    17f2:	00 d0       	rcall	.+0      	; 0x17f4 <vTaskSwitchContext+0x6>
    17f4:	1f 92       	push	r1
    17f6:	cd b7       	in	r28, 0x3d	; 61
    17f8:	de b7       	in	r29, 0x3e	; 62
    17fa:	80 91 44 07 	lds	r24, 0x0744	; 0x800744 <uxSchedulerSuspended>
    17fe:	88 23       	and	r24, r24
    1800:	21 f0       	breq	.+8      	; 0x180a <vTaskSwitchContext+0x1c>
    1802:	81 e0       	ldi	r24, 0x01	; 1
    1804:	80 93 3d 07 	sts	0x073D, r24	; 0x80073d <xYieldPending>
    1808:	5f c0       	rjmp	.+190    	; 0x18c8 <vTaskSwitchContext+0xda>
    180a:	10 92 3d 07 	sts	0x073D, r1	; 0x80073d <xYieldPending>
    180e:	80 91 3a 07 	lds	r24, 0x073A	; 0x80073a <uxTopReadyPriority>
    1812:	89 83       	std	Y+1, r24	; 0x01
    1814:	03 c0       	rjmp	.+6      	; 0x181c <vTaskSwitchContext+0x2e>
    1816:	89 81       	ldd	r24, Y+1	; 0x01
    1818:	81 50       	subi	r24, 0x01	; 1
    181a:	89 83       	std	Y+1, r24	; 0x01
    181c:	89 81       	ldd	r24, Y+1	; 0x01
    181e:	28 2f       	mov	r18, r24
    1820:	30 e0       	ldi	r19, 0x00	; 0
    1822:	c9 01       	movw	r24, r18
    1824:	88 0f       	add	r24, r24
    1826:	99 1f       	adc	r25, r25
    1828:	88 0f       	add	r24, r24
    182a:	99 1f       	adc	r25, r25
    182c:	88 0f       	add	r24, r24
    182e:	99 1f       	adc	r25, r25
    1830:	82 0f       	add	r24, r18
    1832:	93 1f       	adc	r25, r19
    1834:	8f 51       	subi	r24, 0x1F	; 31
    1836:	99 4f       	sbci	r25, 0xF9	; 249
    1838:	fc 01       	movw	r30, r24
    183a:	80 81       	ld	r24, Z
    183c:	88 23       	and	r24, r24
    183e:	59 f3       	breq	.-42     	; 0x1816 <vTaskSwitchContext+0x28>
    1840:	89 81       	ldd	r24, Y+1	; 0x01
    1842:	28 2f       	mov	r18, r24
    1844:	30 e0       	ldi	r19, 0x00	; 0
    1846:	c9 01       	movw	r24, r18
    1848:	88 0f       	add	r24, r24
    184a:	99 1f       	adc	r25, r25
    184c:	88 0f       	add	r24, r24
    184e:	99 1f       	adc	r25, r25
    1850:	88 0f       	add	r24, r24
    1852:	99 1f       	adc	r25, r25
    1854:	82 0f       	add	r24, r18
    1856:	93 1f       	adc	r25, r19
    1858:	8f 51       	subi	r24, 0x1F	; 31
    185a:	99 4f       	sbci	r25, 0xF9	; 249
    185c:	9b 83       	std	Y+3, r25	; 0x03
    185e:	8a 83       	std	Y+2, r24	; 0x02
    1860:	8a 81       	ldd	r24, Y+2	; 0x02
    1862:	9b 81       	ldd	r25, Y+3	; 0x03
    1864:	fc 01       	movw	r30, r24
    1866:	81 81       	ldd	r24, Z+1	; 0x01
    1868:	92 81       	ldd	r25, Z+2	; 0x02
    186a:	fc 01       	movw	r30, r24
    186c:	22 81       	ldd	r18, Z+2	; 0x02
    186e:	33 81       	ldd	r19, Z+3	; 0x03
    1870:	8a 81       	ldd	r24, Y+2	; 0x02
    1872:	9b 81       	ldd	r25, Y+3	; 0x03
    1874:	fc 01       	movw	r30, r24
    1876:	32 83       	std	Z+2, r19	; 0x02
    1878:	21 83       	std	Z+1, r18	; 0x01
    187a:	8a 81       	ldd	r24, Y+2	; 0x02
    187c:	9b 81       	ldd	r25, Y+3	; 0x03
    187e:	fc 01       	movw	r30, r24
    1880:	21 81       	ldd	r18, Z+1	; 0x01
    1882:	32 81       	ldd	r19, Z+2	; 0x02
    1884:	8a 81       	ldd	r24, Y+2	; 0x02
    1886:	9b 81       	ldd	r25, Y+3	; 0x03
    1888:	03 96       	adiw	r24, 0x03	; 3
    188a:	28 17       	cp	r18, r24
    188c:	39 07       	cpc	r19, r25
    188e:	69 f4       	brne	.+26     	; 0x18aa <vTaskSwitchContext+0xbc>
    1890:	8a 81       	ldd	r24, Y+2	; 0x02
    1892:	9b 81       	ldd	r25, Y+3	; 0x03
    1894:	fc 01       	movw	r30, r24
    1896:	81 81       	ldd	r24, Z+1	; 0x01
    1898:	92 81       	ldd	r25, Z+2	; 0x02
    189a:	fc 01       	movw	r30, r24
    189c:	22 81       	ldd	r18, Z+2	; 0x02
    189e:	33 81       	ldd	r19, Z+3	; 0x03
    18a0:	8a 81       	ldd	r24, Y+2	; 0x02
    18a2:	9b 81       	ldd	r25, Y+3	; 0x03
    18a4:	fc 01       	movw	r30, r24
    18a6:	32 83       	std	Z+2, r19	; 0x02
    18a8:	21 83       	std	Z+1, r18	; 0x01
    18aa:	8a 81       	ldd	r24, Y+2	; 0x02
    18ac:	9b 81       	ldd	r25, Y+3	; 0x03
    18ae:	fc 01       	movw	r30, r24
    18b0:	81 81       	ldd	r24, Z+1	; 0x01
    18b2:	92 81       	ldd	r25, Z+2	; 0x02
    18b4:	fc 01       	movw	r30, r24
    18b6:	86 81       	ldd	r24, Z+6	; 0x06
    18b8:	97 81       	ldd	r25, Z+7	; 0x07
    18ba:	90 93 e0 06 	sts	0x06E0, r25	; 0x8006e0 <pxCurrentTCB+0x1>
    18be:	80 93 df 06 	sts	0x06DF, r24	; 0x8006df <pxCurrentTCB>
    18c2:	89 81       	ldd	r24, Y+1	; 0x01
    18c4:	80 93 3a 07 	sts	0x073A, r24	; 0x80073a <uxTopReadyPriority>
    18c8:	00 00       	nop
    18ca:	0f 90       	pop	r0
    18cc:	0f 90       	pop	r0
    18ce:	0f 90       	pop	r0
    18d0:	df 91       	pop	r29
    18d2:	cf 91       	pop	r28
    18d4:	08 95       	ret

000018d6 <prvIdleTask>:
    18d6:	cf 93       	push	r28
    18d8:	df 93       	push	r29
    18da:	00 d0       	rcall	.+0      	; 0x18dc <prvIdleTask+0x6>
    18dc:	cd b7       	in	r28, 0x3d	; 61
    18de:	de b7       	in	r29, 0x3e	; 62
    18e0:	9a 83       	std	Y+2, r25	; 0x02
    18e2:	89 83       	std	Y+1, r24	; 0x01
    18e4:	0e 94 b7 0c 	call	0x196e	; 0x196e <prvCheckTasksWaitingTermination>
    18e8:	fd cf       	rjmp	.-6      	; 0x18e4 <prvIdleTask+0xe>

000018ea <prvInitialiseTaskLists>:
    18ea:	cf 93       	push	r28
    18ec:	df 93       	push	r29
    18ee:	1f 92       	push	r1
    18f0:	cd b7       	in	r28, 0x3d	; 61
    18f2:	de b7       	in	r29, 0x3e	; 62
    18f4:	19 82       	std	Y+1, r1	; 0x01
    18f6:	13 c0       	rjmp	.+38     	; 0x191e <prvInitialiseTaskLists+0x34>
    18f8:	89 81       	ldd	r24, Y+1	; 0x01
    18fa:	28 2f       	mov	r18, r24
    18fc:	30 e0       	ldi	r19, 0x00	; 0
    18fe:	c9 01       	movw	r24, r18
    1900:	88 0f       	add	r24, r24
    1902:	99 1f       	adc	r25, r25
    1904:	88 0f       	add	r24, r24
    1906:	99 1f       	adc	r25, r25
    1908:	88 0f       	add	r24, r24
    190a:	99 1f       	adc	r25, r25
    190c:	82 0f       	add	r24, r18
    190e:	93 1f       	adc	r25, r19
    1910:	8f 51       	subi	r24, 0x1F	; 31
    1912:	99 4f       	sbci	r25, 0xF9	; 249
    1914:	0e 94 79 03 	call	0x6f2	; 0x6f2 <vListInitialise>
    1918:	89 81       	ldd	r24, Y+1	; 0x01
    191a:	8f 5f       	subi	r24, 0xFF	; 255
    191c:	89 83       	std	Y+1, r24	; 0x01
    191e:	89 81       	ldd	r24, Y+1	; 0x01
    1920:	84 30       	cpi	r24, 0x04	; 4
    1922:	50 f3       	brcs	.-44     	; 0x18f8 <prvInitialiseTaskLists+0xe>
    1924:	85 e0       	ldi	r24, 0x05	; 5
    1926:	97 e0       	ldi	r25, 0x07	; 7
    1928:	0e 94 79 03 	call	0x6f2	; 0x6f2 <vListInitialise>
    192c:	8e e0       	ldi	r24, 0x0E	; 14
    192e:	97 e0       	ldi	r25, 0x07	; 7
    1930:	0e 94 79 03 	call	0x6f2	; 0x6f2 <vListInitialise>
    1934:	8b e1       	ldi	r24, 0x1B	; 27
    1936:	97 e0       	ldi	r25, 0x07	; 7
    1938:	0e 94 79 03 	call	0x6f2	; 0x6f2 <vListInitialise>
    193c:	84 e2       	ldi	r24, 0x24	; 36
    193e:	97 e0       	ldi	r25, 0x07	; 7
    1940:	0e 94 79 03 	call	0x6f2	; 0x6f2 <vListInitialise>
    1944:	8e e2       	ldi	r24, 0x2E	; 46
    1946:	97 e0       	ldi	r25, 0x07	; 7
    1948:	0e 94 79 03 	call	0x6f2	; 0x6f2 <vListInitialise>
    194c:	85 e0       	ldi	r24, 0x05	; 5
    194e:	97 e0       	ldi	r25, 0x07	; 7
    1950:	90 93 18 07 	sts	0x0718, r25	; 0x800718 <pxDelayedTaskList+0x1>
    1954:	80 93 17 07 	sts	0x0717, r24	; 0x800717 <pxDelayedTaskList>
    1958:	8e e0       	ldi	r24, 0x0E	; 14
    195a:	97 e0       	ldi	r25, 0x07	; 7
    195c:	90 93 1a 07 	sts	0x071A, r25	; 0x80071a <pxOverflowDelayedTaskList+0x1>
    1960:	80 93 19 07 	sts	0x0719, r24	; 0x800719 <pxOverflowDelayedTaskList>
    1964:	00 00       	nop
    1966:	0f 90       	pop	r0
    1968:	df 91       	pop	r29
    196a:	cf 91       	pop	r28
    196c:	08 95       	ret

0000196e <prvCheckTasksWaitingTermination>:
    196e:	cf 93       	push	r28
    1970:	df 93       	push	r29
    1972:	00 d0       	rcall	.+0      	; 0x1974 <prvCheckTasksWaitingTermination+0x6>
    1974:	cd b7       	in	r28, 0x3d	; 61
    1976:	de b7       	in	r29, 0x3e	; 62
    1978:	21 c0       	rjmp	.+66     	; 0x19bc <prvCheckTasksWaitingTermination+0x4e>
    197a:	0f b6       	in	r0, 0x3f	; 63
    197c:	f8 94       	cli
    197e:	0f 92       	push	r0
    1980:	80 91 29 07 	lds	r24, 0x0729	; 0x800729 <xTasksWaitingTermination+0x5>
    1984:	90 91 2a 07 	lds	r25, 0x072A	; 0x80072a <xTasksWaitingTermination+0x6>
    1988:	fc 01       	movw	r30, r24
    198a:	86 81       	ldd	r24, Z+6	; 0x06
    198c:	97 81       	ldd	r25, Z+7	; 0x07
    198e:	9a 83       	std	Y+2, r25	; 0x02
    1990:	89 83       	std	Y+1, r24	; 0x01
    1992:	89 81       	ldd	r24, Y+1	; 0x01
    1994:	9a 81       	ldd	r25, Y+2	; 0x02
    1996:	02 96       	adiw	r24, 0x02	; 2
    1998:	0e 94 88 04 	call	0x910	; 0x910 <uxListRemove>
    199c:	80 91 37 07 	lds	r24, 0x0737	; 0x800737 <uxCurrentNumberOfTasks>
    19a0:	81 50       	subi	r24, 0x01	; 1
    19a2:	80 93 37 07 	sts	0x0737, r24	; 0x800737 <uxCurrentNumberOfTasks>
    19a6:	80 91 2d 07 	lds	r24, 0x072D	; 0x80072d <uxDeletedTasksWaitingCleanUp>
    19aa:	81 50       	subi	r24, 0x01	; 1
    19ac:	80 93 2d 07 	sts	0x072D, r24	; 0x80072d <uxDeletedTasksWaitingCleanUp>
    19b0:	0f 90       	pop	r0
    19b2:	0f be       	out	0x3f, r0	; 63
    19b4:	89 81       	ldd	r24, Y+1	; 0x01
    19b6:	9a 81       	ldd	r25, Y+2	; 0x02
    19b8:	0e 94 e8 0c 	call	0x19d0	; 0x19d0 <prvDeleteTCB>
    19bc:	80 91 2d 07 	lds	r24, 0x072D	; 0x80072d <uxDeletedTasksWaitingCleanUp>
    19c0:	88 23       	and	r24, r24
    19c2:	d9 f6       	brne	.-74     	; 0x197a <prvCheckTasksWaitingTermination+0xc>
    19c4:	00 00       	nop
    19c6:	0f 90       	pop	r0
    19c8:	0f 90       	pop	r0
    19ca:	df 91       	pop	r29
    19cc:	cf 91       	pop	r28
    19ce:	08 95       	ret

000019d0 <prvDeleteTCB>:
    19d0:	cf 93       	push	r28
    19d2:	df 93       	push	r29
    19d4:	00 d0       	rcall	.+0      	; 0x19d6 <prvDeleteTCB+0x6>
    19d6:	cd b7       	in	r28, 0x3d	; 61
    19d8:	de b7       	in	r29, 0x3e	; 62
    19da:	9a 83       	std	Y+2, r25	; 0x02
    19dc:	89 83       	std	Y+1, r24	; 0x01
    19de:	89 81       	ldd	r24, Y+1	; 0x01
    19e0:	9a 81       	ldd	r25, Y+2	; 0x02
    19e2:	fc 01       	movw	r30, r24
    19e4:	87 89       	ldd	r24, Z+23	; 0x17
    19e6:	90 8d       	ldd	r25, Z+24	; 0x18
    19e8:	0e 94 6c 03 	call	0x6d8	; 0x6d8 <vPortFree>
    19ec:	89 81       	ldd	r24, Y+1	; 0x01
    19ee:	9a 81       	ldd	r25, Y+2	; 0x02
    19f0:	0e 94 6c 03 	call	0x6d8	; 0x6d8 <vPortFree>
    19f4:	00 00       	nop
    19f6:	0f 90       	pop	r0
    19f8:	0f 90       	pop	r0
    19fa:	df 91       	pop	r29
    19fc:	cf 91       	pop	r28
    19fe:	08 95       	ret

00001a00 <prvResetNextTaskUnblockTime>:
    1a00:	cf 93       	push	r28
    1a02:	df 93       	push	r29
    1a04:	00 d0       	rcall	.+0      	; 0x1a06 <prvResetNextTaskUnblockTime+0x6>
    1a06:	cd b7       	in	r28, 0x3d	; 61
    1a08:	de b7       	in	r29, 0x3e	; 62
    1a0a:	80 91 17 07 	lds	r24, 0x0717	; 0x800717 <pxDelayedTaskList>
    1a0e:	90 91 18 07 	lds	r25, 0x0718	; 0x800718 <pxDelayedTaskList+0x1>
    1a12:	fc 01       	movw	r30, r24
    1a14:	80 81       	ld	r24, Z
    1a16:	88 23       	and	r24, r24
    1a18:	39 f4       	brne	.+14     	; 0x1a28 <prvResetNextTaskUnblockTime+0x28>
    1a1a:	8f ef       	ldi	r24, 0xFF	; 255
    1a1c:	9f ef       	ldi	r25, 0xFF	; 255
    1a1e:	90 93 41 07 	sts	0x0741, r25	; 0x800741 <xNextTaskUnblockTime+0x1>
    1a22:	80 93 40 07 	sts	0x0740, r24	; 0x800740 <xNextTaskUnblockTime>
    1a26:	15 c0       	rjmp	.+42     	; 0x1a52 <prvResetNextTaskUnblockTime+0x52>
    1a28:	80 91 17 07 	lds	r24, 0x0717	; 0x800717 <pxDelayedTaskList>
    1a2c:	90 91 18 07 	lds	r25, 0x0718	; 0x800718 <pxDelayedTaskList+0x1>
    1a30:	fc 01       	movw	r30, r24
    1a32:	85 81       	ldd	r24, Z+5	; 0x05
    1a34:	96 81       	ldd	r25, Z+6	; 0x06
    1a36:	fc 01       	movw	r30, r24
    1a38:	86 81       	ldd	r24, Z+6	; 0x06
    1a3a:	97 81       	ldd	r25, Z+7	; 0x07
    1a3c:	9a 83       	std	Y+2, r25	; 0x02
    1a3e:	89 83       	std	Y+1, r24	; 0x01
    1a40:	89 81       	ldd	r24, Y+1	; 0x01
    1a42:	9a 81       	ldd	r25, Y+2	; 0x02
    1a44:	fc 01       	movw	r30, r24
    1a46:	82 81       	ldd	r24, Z+2	; 0x02
    1a48:	93 81       	ldd	r25, Z+3	; 0x03
    1a4a:	90 93 41 07 	sts	0x0741, r25	; 0x800741 <xNextTaskUnblockTime+0x1>
    1a4e:	80 93 40 07 	sts	0x0740, r24	; 0x800740 <xNextTaskUnblockTime>
    1a52:	00 00       	nop
    1a54:	0f 90       	pop	r0
    1a56:	0f 90       	pop	r0
    1a58:	df 91       	pop	r29
    1a5a:	cf 91       	pop	r28
    1a5c:	08 95       	ret

00001a5e <prvAddCurrentTaskToDelayedList>:
    1a5e:	cf 93       	push	r28
    1a60:	df 93       	push	r29
    1a62:	cd b7       	in	r28, 0x3d	; 61
    1a64:	de b7       	in	r29, 0x3e	; 62
    1a66:	27 97       	sbiw	r28, 0x07	; 7
    1a68:	0f b6       	in	r0, 0x3f	; 63
    1a6a:	f8 94       	cli
    1a6c:	de bf       	out	0x3e, r29	; 62
    1a6e:	0f be       	out	0x3f, r0	; 63
    1a70:	cd bf       	out	0x3d, r28	; 61
    1a72:	9e 83       	std	Y+6, r25	; 0x06
    1a74:	8d 83       	std	Y+5, r24	; 0x05
    1a76:	6f 83       	std	Y+7, r22	; 0x07
    1a78:	80 91 38 07 	lds	r24, 0x0738	; 0x800738 <xTickCount>
    1a7c:	90 91 39 07 	lds	r25, 0x0739	; 0x800739 <xTickCount+0x1>
    1a80:	9a 83       	std	Y+2, r25	; 0x02
    1a82:	89 83       	std	Y+1, r24	; 0x01
    1a84:	80 91 df 06 	lds	r24, 0x06DF	; 0x8006df <pxCurrentTCB>
    1a88:	90 91 e0 06 	lds	r25, 0x06E0	; 0x8006e0 <pxCurrentTCB+0x1>
    1a8c:	02 96       	adiw	r24, 0x02	; 2
    1a8e:	0e 94 88 04 	call	0x910	; 0x910 <uxListRemove>
    1a92:	8d 81       	ldd	r24, Y+5	; 0x05
    1a94:	9e 81       	ldd	r25, Y+6	; 0x06
    1a96:	01 96       	adiw	r24, 0x01	; 1
    1a98:	71 f4       	brne	.+28     	; 0x1ab6 <prvAddCurrentTaskToDelayedList+0x58>
    1a9a:	8f 81       	ldd	r24, Y+7	; 0x07
    1a9c:	88 23       	and	r24, r24
    1a9e:	59 f0       	breq	.+22     	; 0x1ab6 <prvAddCurrentTaskToDelayedList+0x58>
    1aa0:	80 91 df 06 	lds	r24, 0x06DF	; 0x8006df <pxCurrentTCB>
    1aa4:	90 91 e0 06 	lds	r25, 0x06E0	; 0x8006e0 <pxCurrentTCB+0x1>
    1aa8:	02 96       	adiw	r24, 0x02	; 2
    1aaa:	bc 01       	movw	r22, r24
    1aac:	8e e2       	ldi	r24, 0x2E	; 46
    1aae:	97 e0       	ldi	r25, 0x07	; 7
    1ab0:	0e 94 c1 03 	call	0x782	; 0x782 <vListInsertEnd>
    1ab4:	44 c0       	rjmp	.+136    	; 0x1b3e <prvAddCurrentTaskToDelayedList+0xe0>
    1ab6:	29 81       	ldd	r18, Y+1	; 0x01
    1ab8:	3a 81       	ldd	r19, Y+2	; 0x02
    1aba:	8d 81       	ldd	r24, Y+5	; 0x05
    1abc:	9e 81       	ldd	r25, Y+6	; 0x06
    1abe:	82 0f       	add	r24, r18
    1ac0:	93 1f       	adc	r25, r19
    1ac2:	9c 83       	std	Y+4, r25	; 0x04
    1ac4:	8b 83       	std	Y+3, r24	; 0x03
    1ac6:	80 91 df 06 	lds	r24, 0x06DF	; 0x8006df <pxCurrentTCB>
    1aca:	90 91 e0 06 	lds	r25, 0x06E0	; 0x8006e0 <pxCurrentTCB+0x1>
    1ace:	2b 81       	ldd	r18, Y+3	; 0x03
    1ad0:	3c 81       	ldd	r19, Y+4	; 0x04
    1ad2:	fc 01       	movw	r30, r24
    1ad4:	33 83       	std	Z+3, r19	; 0x03
    1ad6:	22 83       	std	Z+2, r18	; 0x02
    1ad8:	2b 81       	ldd	r18, Y+3	; 0x03
    1ada:	3c 81       	ldd	r19, Y+4	; 0x04
    1adc:	89 81       	ldd	r24, Y+1	; 0x01
    1ade:	9a 81       	ldd	r25, Y+2	; 0x02
    1ae0:	28 17       	cp	r18, r24
    1ae2:	39 07       	cpc	r19, r25
    1ae4:	78 f4       	brcc	.+30     	; 0x1b04 <prvAddCurrentTaskToDelayedList+0xa6>
    1ae6:	80 91 df 06 	lds	r24, 0x06DF	; 0x8006df <pxCurrentTCB>
    1aea:	90 91 e0 06 	lds	r25, 0x06E0	; 0x8006e0 <pxCurrentTCB+0x1>
    1aee:	9c 01       	movw	r18, r24
    1af0:	2e 5f       	subi	r18, 0xFE	; 254
    1af2:	3f 4f       	sbci	r19, 0xFF	; 255
    1af4:	80 91 19 07 	lds	r24, 0x0719	; 0x800719 <pxOverflowDelayedTaskList>
    1af8:	90 91 1a 07 	lds	r25, 0x071A	; 0x80071a <pxOverflowDelayedTaskList+0x1>
    1afc:	b9 01       	movw	r22, r18
    1afe:	0e 94 10 04 	call	0x820	; 0x820 <vListInsert>
    1b02:	1d c0       	rjmp	.+58     	; 0x1b3e <prvAddCurrentTaskToDelayedList+0xe0>
    1b04:	80 91 df 06 	lds	r24, 0x06DF	; 0x8006df <pxCurrentTCB>
    1b08:	90 91 e0 06 	lds	r25, 0x06E0	; 0x8006e0 <pxCurrentTCB+0x1>
    1b0c:	9c 01       	movw	r18, r24
    1b0e:	2e 5f       	subi	r18, 0xFE	; 254
    1b10:	3f 4f       	sbci	r19, 0xFF	; 255
    1b12:	80 91 17 07 	lds	r24, 0x0717	; 0x800717 <pxDelayedTaskList>
    1b16:	90 91 18 07 	lds	r25, 0x0718	; 0x800718 <pxDelayedTaskList+0x1>
    1b1a:	b9 01       	movw	r22, r18
    1b1c:	0e 94 10 04 	call	0x820	; 0x820 <vListInsert>
    1b20:	80 91 40 07 	lds	r24, 0x0740	; 0x800740 <xNextTaskUnblockTime>
    1b24:	90 91 41 07 	lds	r25, 0x0741	; 0x800741 <xNextTaskUnblockTime+0x1>
    1b28:	2b 81       	ldd	r18, Y+3	; 0x03
    1b2a:	3c 81       	ldd	r19, Y+4	; 0x04
    1b2c:	28 17       	cp	r18, r24
    1b2e:	39 07       	cpc	r19, r25
    1b30:	30 f4       	brcc	.+12     	; 0x1b3e <prvAddCurrentTaskToDelayedList+0xe0>
    1b32:	8b 81       	ldd	r24, Y+3	; 0x03
    1b34:	9c 81       	ldd	r25, Y+4	; 0x04
    1b36:	90 93 41 07 	sts	0x0741, r25	; 0x800741 <xNextTaskUnblockTime+0x1>
    1b3a:	80 93 40 07 	sts	0x0740, r24	; 0x800740 <xNextTaskUnblockTime>
    1b3e:	00 00       	nop
    1b40:	27 96       	adiw	r28, 0x07	; 7
    1b42:	0f b6       	in	r0, 0x3f	; 63
    1b44:	f8 94       	cli
    1b46:	de bf       	out	0x3e, r29	; 62
    1b48:	0f be       	out	0x3f, r0	; 63
    1b4a:	cd bf       	out	0x3d, r28	; 61
    1b4c:	df 91       	pop	r29
    1b4e:	cf 91       	pop	r28
    1b50:	08 95       	ret

00001b52 <Gpio_PortDirection>:
    1b52:	cf 93       	push	r28
    1b54:	df 93       	push	r29
    1b56:	00 d0       	rcall	.+0      	; 0x1b58 <Gpio_PortDirection+0x6>
    1b58:	cd b7       	in	r28, 0x3d	; 61
    1b5a:	de b7       	in	r29, 0x3e	; 62
    1b5c:	89 83       	std	Y+1, r24	; 0x01
    1b5e:	6a 83       	std	Y+2, r22	; 0x02
    1b60:	89 81       	ldd	r24, Y+1	; 0x01
    1b62:	88 2f       	mov	r24, r24
    1b64:	90 e0       	ldi	r25, 0x00	; 0
    1b66:	81 30       	cpi	r24, 0x01	; 1
    1b68:	91 05       	cpc	r25, r1
    1b6a:	91 f0       	breq	.+36     	; 0x1b90 <Gpio_PortDirection+0x3e>
    1b6c:	82 30       	cpi	r24, 0x02	; 2
    1b6e:	91 05       	cpc	r25, r1
    1b70:	1c f4       	brge	.+6      	; 0x1b78 <Gpio_PortDirection+0x26>
    1b72:	89 2b       	or	r24, r25
    1b74:	39 f0       	breq	.+14     	; 0x1b84 <Gpio_PortDirection+0x32>
    1b76:	1e c0       	rjmp	.+60     	; 0x1bb4 <Gpio_PortDirection+0x62>
    1b78:	82 30       	cpi	r24, 0x02	; 2
    1b7a:	91 05       	cpc	r25, r1
    1b7c:	79 f0       	breq	.+30     	; 0x1b9c <Gpio_PortDirection+0x4a>
    1b7e:	03 97       	sbiw	r24, 0x03	; 3
    1b80:	99 f0       	breq	.+38     	; 0x1ba8 <Gpio_PortDirection+0x56>
    1b82:	18 c0       	rjmp	.+48     	; 0x1bb4 <Gpio_PortDirection+0x62>
    1b84:	8a e3       	ldi	r24, 0x3A	; 58
    1b86:	90 e0       	ldi	r25, 0x00	; 0
    1b88:	2a 81       	ldd	r18, Y+2	; 0x02
    1b8a:	fc 01       	movw	r30, r24
    1b8c:	20 83       	st	Z, r18
    1b8e:	12 c0       	rjmp	.+36     	; 0x1bb4 <Gpio_PortDirection+0x62>
    1b90:	87 e3       	ldi	r24, 0x37	; 55
    1b92:	90 e0       	ldi	r25, 0x00	; 0
    1b94:	2a 81       	ldd	r18, Y+2	; 0x02
    1b96:	fc 01       	movw	r30, r24
    1b98:	20 83       	st	Z, r18
    1b9a:	0c c0       	rjmp	.+24     	; 0x1bb4 <Gpio_PortDirection+0x62>
    1b9c:	84 e3       	ldi	r24, 0x34	; 52
    1b9e:	90 e0       	ldi	r25, 0x00	; 0
    1ba0:	2a 81       	ldd	r18, Y+2	; 0x02
    1ba2:	fc 01       	movw	r30, r24
    1ba4:	20 83       	st	Z, r18
    1ba6:	06 c0       	rjmp	.+12     	; 0x1bb4 <Gpio_PortDirection+0x62>
    1ba8:	81 e3       	ldi	r24, 0x31	; 49
    1baa:	90 e0       	ldi	r25, 0x00	; 0
    1bac:	2a 81       	ldd	r18, Y+2	; 0x02
    1bae:	fc 01       	movw	r30, r24
    1bb0:	20 83       	st	Z, r18
    1bb2:	00 00       	nop
    1bb4:	00 00       	nop
    1bb6:	0f 90       	pop	r0
    1bb8:	0f 90       	pop	r0
    1bba:	df 91       	pop	r29
    1bbc:	cf 91       	pop	r28
    1bbe:	08 95       	ret

00001bc0 <Gpio_PinDirection>:
    1bc0:	cf 93       	push	r28
    1bc2:	df 93       	push	r29
    1bc4:	00 d0       	rcall	.+0      	; 0x1bc6 <Gpio_PinDirection+0x6>
    1bc6:	1f 92       	push	r1
    1bc8:	cd b7       	in	r28, 0x3d	; 61
    1bca:	de b7       	in	r29, 0x3e	; 62
    1bcc:	89 83       	std	Y+1, r24	; 0x01
    1bce:	6a 83       	std	Y+2, r22	; 0x02
    1bd0:	4b 83       	std	Y+3, r20	; 0x03
    1bd2:	89 81       	ldd	r24, Y+1	; 0x01
    1bd4:	88 2f       	mov	r24, r24
    1bd6:	90 e0       	ldi	r25, 0x00	; 0
    1bd8:	81 30       	cpi	r24, 0x01	; 1
    1bda:	91 05       	cpc	r25, r1
    1bdc:	81 f1       	breq	.+96     	; 0x1c3e <Gpio_PinDirection+0x7e>
    1bde:	82 30       	cpi	r24, 0x02	; 2
    1be0:	91 05       	cpc	r25, r1
    1be2:	1c f4       	brge	.+6      	; 0x1bea <Gpio_PinDirection+0x2a>
    1be4:	89 2b       	or	r24, r25
    1be6:	49 f0       	breq	.+18     	; 0x1bfa <Gpio_PinDirection+0x3a>
    1be8:	90 c0       	rjmp	.+288    	; 0x1d0a <Gpio_PinDirection+0x14a>
    1bea:	82 30       	cpi	r24, 0x02	; 2
    1bec:	91 05       	cpc	r25, r1
    1bee:	09 f4       	brne	.+2      	; 0x1bf2 <Gpio_PinDirection+0x32>
    1bf0:	48 c0       	rjmp	.+144    	; 0x1c82 <Gpio_PinDirection+0xc2>
    1bf2:	03 97       	sbiw	r24, 0x03	; 3
    1bf4:	09 f4       	brne	.+2      	; 0x1bf8 <Gpio_PinDirection+0x38>
    1bf6:	67 c0       	rjmp	.+206    	; 0x1cc6 <Gpio_PinDirection+0x106>
    1bf8:	88 c0       	rjmp	.+272    	; 0x1d0a <Gpio_PinDirection+0x14a>
    1bfa:	8b 81       	ldd	r24, Y+3	; 0x03
    1bfc:	88 2f       	mov	r24, r24
    1bfe:	90 e0       	ldi	r25, 0x00	; 0
    1c00:	00 97       	sbiw	r24, 0x00	; 0
    1c02:	21 f0       	breq	.+8      	; 0x1c0c <Gpio_PinDirection+0x4c>
    1c04:	8f 3f       	cpi	r24, 0xFF	; 255
    1c06:	91 05       	cpc	r25, r1
    1c08:	71 f0       	breq	.+28     	; 0x1c26 <Gpio_PinDirection+0x66>
    1c0a:	7f c0       	rjmp	.+254    	; 0x1d0a <Gpio_PinDirection+0x14a>
    1c0c:	8a e3       	ldi	r24, 0x3A	; 58
    1c0e:	90 e0       	ldi	r25, 0x00	; 0
    1c10:	2a e3       	ldi	r18, 0x3A	; 58
    1c12:	30 e0       	ldi	r19, 0x00	; 0
    1c14:	f9 01       	movw	r30, r18
    1c16:	20 81       	ld	r18, Z
    1c18:	32 2f       	mov	r19, r18
    1c1a:	2a 81       	ldd	r18, Y+2	; 0x02
    1c1c:	20 95       	com	r18
    1c1e:	23 23       	and	r18, r19
    1c20:	fc 01       	movw	r30, r24
    1c22:	20 83       	st	Z, r18
    1c24:	0b c0       	rjmp	.+22     	; 0x1c3c <Gpio_PinDirection+0x7c>
    1c26:	8a e3       	ldi	r24, 0x3A	; 58
    1c28:	90 e0       	ldi	r25, 0x00	; 0
    1c2a:	2a e3       	ldi	r18, 0x3A	; 58
    1c2c:	30 e0       	ldi	r19, 0x00	; 0
    1c2e:	f9 01       	movw	r30, r18
    1c30:	30 81       	ld	r19, Z
    1c32:	2a 81       	ldd	r18, Y+2	; 0x02
    1c34:	23 2b       	or	r18, r19
    1c36:	fc 01       	movw	r30, r24
    1c38:	20 83       	st	Z, r18
    1c3a:	00 00       	nop
    1c3c:	66 c0       	rjmp	.+204    	; 0x1d0a <Gpio_PinDirection+0x14a>
    1c3e:	8b 81       	ldd	r24, Y+3	; 0x03
    1c40:	88 2f       	mov	r24, r24
    1c42:	90 e0       	ldi	r25, 0x00	; 0
    1c44:	00 97       	sbiw	r24, 0x00	; 0
    1c46:	21 f0       	breq	.+8      	; 0x1c50 <Gpio_PinDirection+0x90>
    1c48:	8f 3f       	cpi	r24, 0xFF	; 255
    1c4a:	91 05       	cpc	r25, r1
    1c4c:	71 f0       	breq	.+28     	; 0x1c6a <Gpio_PinDirection+0xaa>
    1c4e:	5d c0       	rjmp	.+186    	; 0x1d0a <Gpio_PinDirection+0x14a>
    1c50:	87 e3       	ldi	r24, 0x37	; 55
    1c52:	90 e0       	ldi	r25, 0x00	; 0
    1c54:	27 e3       	ldi	r18, 0x37	; 55
    1c56:	30 e0       	ldi	r19, 0x00	; 0
    1c58:	f9 01       	movw	r30, r18
    1c5a:	20 81       	ld	r18, Z
    1c5c:	32 2f       	mov	r19, r18
    1c5e:	2a 81       	ldd	r18, Y+2	; 0x02
    1c60:	20 95       	com	r18
    1c62:	23 23       	and	r18, r19
    1c64:	fc 01       	movw	r30, r24
    1c66:	20 83       	st	Z, r18
    1c68:	0b c0       	rjmp	.+22     	; 0x1c80 <Gpio_PinDirection+0xc0>
    1c6a:	87 e3       	ldi	r24, 0x37	; 55
    1c6c:	90 e0       	ldi	r25, 0x00	; 0
    1c6e:	27 e3       	ldi	r18, 0x37	; 55
    1c70:	30 e0       	ldi	r19, 0x00	; 0
    1c72:	f9 01       	movw	r30, r18
    1c74:	30 81       	ld	r19, Z
    1c76:	2a 81       	ldd	r18, Y+2	; 0x02
    1c78:	23 2b       	or	r18, r19
    1c7a:	fc 01       	movw	r30, r24
    1c7c:	20 83       	st	Z, r18
    1c7e:	00 00       	nop
    1c80:	44 c0       	rjmp	.+136    	; 0x1d0a <Gpio_PinDirection+0x14a>
    1c82:	8b 81       	ldd	r24, Y+3	; 0x03
    1c84:	88 2f       	mov	r24, r24
    1c86:	90 e0       	ldi	r25, 0x00	; 0
    1c88:	00 97       	sbiw	r24, 0x00	; 0
    1c8a:	21 f0       	breq	.+8      	; 0x1c94 <Gpio_PinDirection+0xd4>
    1c8c:	8f 3f       	cpi	r24, 0xFF	; 255
    1c8e:	91 05       	cpc	r25, r1
    1c90:	71 f0       	breq	.+28     	; 0x1cae <Gpio_PinDirection+0xee>
    1c92:	3b c0       	rjmp	.+118    	; 0x1d0a <Gpio_PinDirection+0x14a>
    1c94:	84 e3       	ldi	r24, 0x34	; 52
    1c96:	90 e0       	ldi	r25, 0x00	; 0
    1c98:	24 e3       	ldi	r18, 0x34	; 52
    1c9a:	30 e0       	ldi	r19, 0x00	; 0
    1c9c:	f9 01       	movw	r30, r18
    1c9e:	20 81       	ld	r18, Z
    1ca0:	32 2f       	mov	r19, r18
    1ca2:	2a 81       	ldd	r18, Y+2	; 0x02
    1ca4:	20 95       	com	r18
    1ca6:	23 23       	and	r18, r19
    1ca8:	fc 01       	movw	r30, r24
    1caa:	20 83       	st	Z, r18
    1cac:	0b c0       	rjmp	.+22     	; 0x1cc4 <Gpio_PinDirection+0x104>
    1cae:	84 e3       	ldi	r24, 0x34	; 52
    1cb0:	90 e0       	ldi	r25, 0x00	; 0
    1cb2:	24 e3       	ldi	r18, 0x34	; 52
    1cb4:	30 e0       	ldi	r19, 0x00	; 0
    1cb6:	f9 01       	movw	r30, r18
    1cb8:	30 81       	ld	r19, Z
    1cba:	2a 81       	ldd	r18, Y+2	; 0x02
    1cbc:	23 2b       	or	r18, r19
    1cbe:	fc 01       	movw	r30, r24
    1cc0:	20 83       	st	Z, r18
    1cc2:	00 00       	nop
    1cc4:	22 c0       	rjmp	.+68     	; 0x1d0a <Gpio_PinDirection+0x14a>
    1cc6:	8b 81       	ldd	r24, Y+3	; 0x03
    1cc8:	88 2f       	mov	r24, r24
    1cca:	90 e0       	ldi	r25, 0x00	; 0
    1ccc:	00 97       	sbiw	r24, 0x00	; 0
    1cce:	21 f0       	breq	.+8      	; 0x1cd8 <Gpio_PinDirection+0x118>
    1cd0:	8f 3f       	cpi	r24, 0xFF	; 255
    1cd2:	91 05       	cpc	r25, r1
    1cd4:	71 f0       	breq	.+28     	; 0x1cf2 <Gpio_PinDirection+0x132>
    1cd6:	18 c0       	rjmp	.+48     	; 0x1d08 <Gpio_PinDirection+0x148>
    1cd8:	81 e3       	ldi	r24, 0x31	; 49
    1cda:	90 e0       	ldi	r25, 0x00	; 0
    1cdc:	21 e3       	ldi	r18, 0x31	; 49
    1cde:	30 e0       	ldi	r19, 0x00	; 0
    1ce0:	f9 01       	movw	r30, r18
    1ce2:	20 81       	ld	r18, Z
    1ce4:	32 2f       	mov	r19, r18
    1ce6:	2a 81       	ldd	r18, Y+2	; 0x02
    1ce8:	20 95       	com	r18
    1cea:	23 23       	and	r18, r19
    1cec:	fc 01       	movw	r30, r24
    1cee:	20 83       	st	Z, r18
    1cf0:	0b c0       	rjmp	.+22     	; 0x1d08 <Gpio_PinDirection+0x148>
    1cf2:	81 e3       	ldi	r24, 0x31	; 49
    1cf4:	90 e0       	ldi	r25, 0x00	; 0
    1cf6:	21 e3       	ldi	r18, 0x31	; 49
    1cf8:	30 e0       	ldi	r19, 0x00	; 0
    1cfa:	f9 01       	movw	r30, r18
    1cfc:	30 81       	ld	r19, Z
    1cfe:	2a 81       	ldd	r18, Y+2	; 0x02
    1d00:	23 2b       	or	r18, r19
    1d02:	fc 01       	movw	r30, r24
    1d04:	20 83       	st	Z, r18
    1d06:	00 00       	nop
    1d08:	00 00       	nop
    1d0a:	00 00       	nop
    1d0c:	0f 90       	pop	r0
    1d0e:	0f 90       	pop	r0
    1d10:	0f 90       	pop	r0
    1d12:	df 91       	pop	r29
    1d14:	cf 91       	pop	r28
    1d16:	08 95       	ret

00001d18 <Gpio_PinWrite>:
    1d18:	cf 93       	push	r28
    1d1a:	df 93       	push	r29
    1d1c:	00 d0       	rcall	.+0      	; 0x1d1e <Gpio_PinWrite+0x6>
    1d1e:	1f 92       	push	r1
    1d20:	cd b7       	in	r28, 0x3d	; 61
    1d22:	de b7       	in	r29, 0x3e	; 62
    1d24:	89 83       	std	Y+1, r24	; 0x01
    1d26:	6a 83       	std	Y+2, r22	; 0x02
    1d28:	4b 83       	std	Y+3, r20	; 0x03
    1d2a:	8b 81       	ldd	r24, Y+3	; 0x03
    1d2c:	88 2f       	mov	r24, r24
    1d2e:	90 e0       	ldi	r25, 0x00	; 0
    1d30:	00 97       	sbiw	r24, 0x00	; 0
    1d32:	09 f4       	brne	.+2      	; 0x1d36 <Gpio_PinWrite+0x1e>
    1d34:	42 c0       	rjmp	.+132    	; 0x1dba <Gpio_PinWrite+0xa2>
    1d36:	01 97       	sbiw	r24, 0x01	; 1
    1d38:	09 f0       	breq	.+2      	; 0x1d3c <Gpio_PinWrite+0x24>
    1d3a:	86 c0       	rjmp	.+268    	; 0x1e48 <Gpio_PinWrite+0x130>
    1d3c:	89 81       	ldd	r24, Y+1	; 0x01
    1d3e:	88 2f       	mov	r24, r24
    1d40:	90 e0       	ldi	r25, 0x00	; 0
    1d42:	81 30       	cpi	r24, 0x01	; 1
    1d44:	91 05       	cpc	r25, r1
    1d46:	b9 f0       	breq	.+46     	; 0x1d76 <Gpio_PinWrite+0x5e>
    1d48:	82 30       	cpi	r24, 0x02	; 2
    1d4a:	91 05       	cpc	r25, r1
    1d4c:	1c f4       	brge	.+6      	; 0x1d54 <Gpio_PinWrite+0x3c>
    1d4e:	89 2b       	or	r24, r25
    1d50:	39 f0       	breq	.+14     	; 0x1d60 <Gpio_PinWrite+0x48>
    1d52:	7a c0       	rjmp	.+244    	; 0x1e48 <Gpio_PinWrite+0x130>
    1d54:	82 30       	cpi	r24, 0x02	; 2
    1d56:	91 05       	cpc	r25, r1
    1d58:	c9 f0       	breq	.+50     	; 0x1d8c <Gpio_PinWrite+0x74>
    1d5a:	03 97       	sbiw	r24, 0x03	; 3
    1d5c:	11 f1       	breq	.+68     	; 0x1da2 <Gpio_PinWrite+0x8a>
    1d5e:	74 c0       	rjmp	.+232    	; 0x1e48 <Gpio_PinWrite+0x130>
    1d60:	8b e3       	ldi	r24, 0x3B	; 59
    1d62:	90 e0       	ldi	r25, 0x00	; 0
    1d64:	2b e3       	ldi	r18, 0x3B	; 59
    1d66:	30 e0       	ldi	r19, 0x00	; 0
    1d68:	f9 01       	movw	r30, r18
    1d6a:	30 81       	ld	r19, Z
    1d6c:	2a 81       	ldd	r18, Y+2	; 0x02
    1d6e:	23 2b       	or	r18, r19
    1d70:	fc 01       	movw	r30, r24
    1d72:	20 83       	st	Z, r18
    1d74:	21 c0       	rjmp	.+66     	; 0x1db8 <Gpio_PinWrite+0xa0>
    1d76:	88 e3       	ldi	r24, 0x38	; 56
    1d78:	90 e0       	ldi	r25, 0x00	; 0
    1d7a:	28 e3       	ldi	r18, 0x38	; 56
    1d7c:	30 e0       	ldi	r19, 0x00	; 0
    1d7e:	f9 01       	movw	r30, r18
    1d80:	30 81       	ld	r19, Z
    1d82:	2a 81       	ldd	r18, Y+2	; 0x02
    1d84:	23 2b       	or	r18, r19
    1d86:	fc 01       	movw	r30, r24
    1d88:	20 83       	st	Z, r18
    1d8a:	16 c0       	rjmp	.+44     	; 0x1db8 <Gpio_PinWrite+0xa0>
    1d8c:	85 e3       	ldi	r24, 0x35	; 53
    1d8e:	90 e0       	ldi	r25, 0x00	; 0
    1d90:	25 e3       	ldi	r18, 0x35	; 53
    1d92:	30 e0       	ldi	r19, 0x00	; 0
    1d94:	f9 01       	movw	r30, r18
    1d96:	30 81       	ld	r19, Z
    1d98:	2a 81       	ldd	r18, Y+2	; 0x02
    1d9a:	23 2b       	or	r18, r19
    1d9c:	fc 01       	movw	r30, r24
    1d9e:	20 83       	st	Z, r18
    1da0:	0b c0       	rjmp	.+22     	; 0x1db8 <Gpio_PinWrite+0xa0>
    1da2:	82 e3       	ldi	r24, 0x32	; 50
    1da4:	90 e0       	ldi	r25, 0x00	; 0
    1da6:	22 e3       	ldi	r18, 0x32	; 50
    1da8:	30 e0       	ldi	r19, 0x00	; 0
    1daa:	f9 01       	movw	r30, r18
    1dac:	30 81       	ld	r19, Z
    1dae:	2a 81       	ldd	r18, Y+2	; 0x02
    1db0:	23 2b       	or	r18, r19
    1db2:	fc 01       	movw	r30, r24
    1db4:	20 83       	st	Z, r18
    1db6:	00 00       	nop
    1db8:	47 c0       	rjmp	.+142    	; 0x1e48 <Gpio_PinWrite+0x130>
    1dba:	89 81       	ldd	r24, Y+1	; 0x01
    1dbc:	88 2f       	mov	r24, r24
    1dbe:	90 e0       	ldi	r25, 0x00	; 0
    1dc0:	81 30       	cpi	r24, 0x01	; 1
    1dc2:	91 05       	cpc	r25, r1
    1dc4:	c9 f0       	breq	.+50     	; 0x1df8 <Gpio_PinWrite+0xe0>
    1dc6:	82 30       	cpi	r24, 0x02	; 2
    1dc8:	91 05       	cpc	r25, r1
    1dca:	1c f4       	brge	.+6      	; 0x1dd2 <Gpio_PinWrite+0xba>
    1dcc:	89 2b       	or	r24, r25
    1dce:	39 f0       	breq	.+14     	; 0x1dde <Gpio_PinWrite+0xc6>
    1dd0:	3a c0       	rjmp	.+116    	; 0x1e46 <Gpio_PinWrite+0x12e>
    1dd2:	82 30       	cpi	r24, 0x02	; 2
    1dd4:	91 05       	cpc	r25, r1
    1dd6:	e9 f0       	breq	.+58     	; 0x1e12 <Gpio_PinWrite+0xfa>
    1dd8:	03 97       	sbiw	r24, 0x03	; 3
    1dda:	41 f1       	breq	.+80     	; 0x1e2c <Gpio_PinWrite+0x114>
    1ddc:	34 c0       	rjmp	.+104    	; 0x1e46 <Gpio_PinWrite+0x12e>
    1dde:	8b e3       	ldi	r24, 0x3B	; 59
    1de0:	90 e0       	ldi	r25, 0x00	; 0
    1de2:	2b e3       	ldi	r18, 0x3B	; 59
    1de4:	30 e0       	ldi	r19, 0x00	; 0
    1de6:	f9 01       	movw	r30, r18
    1de8:	20 81       	ld	r18, Z
    1dea:	32 2f       	mov	r19, r18
    1dec:	2a 81       	ldd	r18, Y+2	; 0x02
    1dee:	20 95       	com	r18
    1df0:	23 23       	and	r18, r19
    1df2:	fc 01       	movw	r30, r24
    1df4:	20 83       	st	Z, r18
    1df6:	27 c0       	rjmp	.+78     	; 0x1e46 <Gpio_PinWrite+0x12e>
    1df8:	88 e3       	ldi	r24, 0x38	; 56
    1dfa:	90 e0       	ldi	r25, 0x00	; 0
    1dfc:	28 e3       	ldi	r18, 0x38	; 56
    1dfe:	30 e0       	ldi	r19, 0x00	; 0
    1e00:	f9 01       	movw	r30, r18
    1e02:	20 81       	ld	r18, Z
    1e04:	32 2f       	mov	r19, r18
    1e06:	2a 81       	ldd	r18, Y+2	; 0x02
    1e08:	20 95       	com	r18
    1e0a:	23 23       	and	r18, r19
    1e0c:	fc 01       	movw	r30, r24
    1e0e:	20 83       	st	Z, r18
    1e10:	1a c0       	rjmp	.+52     	; 0x1e46 <Gpio_PinWrite+0x12e>
    1e12:	85 e3       	ldi	r24, 0x35	; 53
    1e14:	90 e0       	ldi	r25, 0x00	; 0
    1e16:	25 e3       	ldi	r18, 0x35	; 53
    1e18:	30 e0       	ldi	r19, 0x00	; 0
    1e1a:	f9 01       	movw	r30, r18
    1e1c:	20 81       	ld	r18, Z
    1e1e:	32 2f       	mov	r19, r18
    1e20:	2a 81       	ldd	r18, Y+2	; 0x02
    1e22:	20 95       	com	r18
    1e24:	23 23       	and	r18, r19
    1e26:	fc 01       	movw	r30, r24
    1e28:	20 83       	st	Z, r18
    1e2a:	0d c0       	rjmp	.+26     	; 0x1e46 <Gpio_PinWrite+0x12e>
    1e2c:	82 e3       	ldi	r24, 0x32	; 50
    1e2e:	90 e0       	ldi	r25, 0x00	; 0
    1e30:	22 e3       	ldi	r18, 0x32	; 50
    1e32:	30 e0       	ldi	r19, 0x00	; 0
    1e34:	f9 01       	movw	r30, r18
    1e36:	20 81       	ld	r18, Z
    1e38:	32 2f       	mov	r19, r18
    1e3a:	2a 81       	ldd	r18, Y+2	; 0x02
    1e3c:	20 95       	com	r18
    1e3e:	23 23       	and	r18, r19
    1e40:	fc 01       	movw	r30, r24
    1e42:	20 83       	st	Z, r18
    1e44:	00 00       	nop
    1e46:	00 00       	nop
    1e48:	00 00       	nop
    1e4a:	0f 90       	pop	r0
    1e4c:	0f 90       	pop	r0
    1e4e:	0f 90       	pop	r0
    1e50:	df 91       	pop	r29
    1e52:	cf 91       	pop	r28
    1e54:	08 95       	ret

00001e56 <Gpio_PinToggle>:
    1e56:	cf 93       	push	r28
    1e58:	df 93       	push	r29
    1e5a:	00 d0       	rcall	.+0      	; 0x1e5c <Gpio_PinToggle+0x6>
    1e5c:	cd b7       	in	r28, 0x3d	; 61
    1e5e:	de b7       	in	r29, 0x3e	; 62
    1e60:	89 83       	std	Y+1, r24	; 0x01
    1e62:	6a 83       	std	Y+2, r22	; 0x02
    1e64:	89 81       	ldd	r24, Y+1	; 0x01
    1e66:	88 2f       	mov	r24, r24
    1e68:	90 e0       	ldi	r25, 0x00	; 0
    1e6a:	81 30       	cpi	r24, 0x01	; 1
    1e6c:	91 05       	cpc	r25, r1
    1e6e:	b9 f0       	breq	.+46     	; 0x1e9e <Gpio_PinToggle+0x48>
    1e70:	82 30       	cpi	r24, 0x02	; 2
    1e72:	91 05       	cpc	r25, r1
    1e74:	1c f4       	brge	.+6      	; 0x1e7c <Gpio_PinToggle+0x26>
    1e76:	89 2b       	or	r24, r25
    1e78:	39 f0       	breq	.+14     	; 0x1e88 <Gpio_PinToggle+0x32>
    1e7a:	32 c0       	rjmp	.+100    	; 0x1ee0 <Gpio_PinToggle+0x8a>
    1e7c:	82 30       	cpi	r24, 0x02	; 2
    1e7e:	91 05       	cpc	r25, r1
    1e80:	c9 f0       	breq	.+50     	; 0x1eb4 <Gpio_PinToggle+0x5e>
    1e82:	03 97       	sbiw	r24, 0x03	; 3
    1e84:	11 f1       	breq	.+68     	; 0x1eca <Gpio_PinToggle+0x74>
    1e86:	2c c0       	rjmp	.+88     	; 0x1ee0 <Gpio_PinToggle+0x8a>
    1e88:	8b e3       	ldi	r24, 0x3B	; 59
    1e8a:	90 e0       	ldi	r25, 0x00	; 0
    1e8c:	2b e3       	ldi	r18, 0x3B	; 59
    1e8e:	30 e0       	ldi	r19, 0x00	; 0
    1e90:	f9 01       	movw	r30, r18
    1e92:	30 81       	ld	r19, Z
    1e94:	2a 81       	ldd	r18, Y+2	; 0x02
    1e96:	23 27       	eor	r18, r19
    1e98:	fc 01       	movw	r30, r24
    1e9a:	20 83       	st	Z, r18
    1e9c:	21 c0       	rjmp	.+66     	; 0x1ee0 <Gpio_PinToggle+0x8a>
    1e9e:	88 e3       	ldi	r24, 0x38	; 56
    1ea0:	90 e0       	ldi	r25, 0x00	; 0
    1ea2:	28 e3       	ldi	r18, 0x38	; 56
    1ea4:	30 e0       	ldi	r19, 0x00	; 0
    1ea6:	f9 01       	movw	r30, r18
    1ea8:	30 81       	ld	r19, Z
    1eaa:	2a 81       	ldd	r18, Y+2	; 0x02
    1eac:	23 27       	eor	r18, r19
    1eae:	fc 01       	movw	r30, r24
    1eb0:	20 83       	st	Z, r18
    1eb2:	16 c0       	rjmp	.+44     	; 0x1ee0 <Gpio_PinToggle+0x8a>
    1eb4:	85 e3       	ldi	r24, 0x35	; 53
    1eb6:	90 e0       	ldi	r25, 0x00	; 0
    1eb8:	25 e3       	ldi	r18, 0x35	; 53
    1eba:	30 e0       	ldi	r19, 0x00	; 0
    1ebc:	f9 01       	movw	r30, r18
    1ebe:	30 81       	ld	r19, Z
    1ec0:	2a 81       	ldd	r18, Y+2	; 0x02
    1ec2:	23 27       	eor	r18, r19
    1ec4:	fc 01       	movw	r30, r24
    1ec6:	20 83       	st	Z, r18
    1ec8:	0b c0       	rjmp	.+22     	; 0x1ee0 <Gpio_PinToggle+0x8a>
    1eca:	82 e3       	ldi	r24, 0x32	; 50
    1ecc:	90 e0       	ldi	r25, 0x00	; 0
    1ece:	22 e3       	ldi	r18, 0x32	; 50
    1ed0:	30 e0       	ldi	r19, 0x00	; 0
    1ed2:	f9 01       	movw	r30, r18
    1ed4:	30 81       	ld	r19, Z
    1ed6:	2a 81       	ldd	r18, Y+2	; 0x02
    1ed8:	23 27       	eor	r18, r19
    1eda:	fc 01       	movw	r30, r24
    1edc:	20 83       	st	Z, r18
    1ede:	00 00       	nop
    1ee0:	00 00       	nop
    1ee2:	0f 90       	pop	r0
    1ee4:	0f 90       	pop	r0
    1ee6:	df 91       	pop	r29
    1ee8:	cf 91       	pop	r28
    1eea:	08 95       	ret

00001eec <_exit>:
    1eec:	f8 94       	cli

00001eee <__stop_program>:
    1eee:	ff cf       	rjmp	.-2      	; 0x1eee <__stop_program>
